(dp0
S'class_sl'
p1
(dp2
S'MIXM1'
p3
(I6
I12
tp4
sS'MIXM2'
p5
(I12
I18
tp6
sS'SCF'
p7
(I35
I41
tp8
sS'SMXF'
p9
(I53
I59
tp10
sS'OCTM1'
p11
(I18
I24
tp12
sS'OCTM2'
p13
(I24
I30
tp14
sS'MIXF'
p15
(I0
I6
tp16
sS'SMXM1'
p17
(I59
I65
tp18
sS'SMXM2'
p19
(I65
I70
tp20
sS'OTCF'
p21
(I30
I35
tp22
sS'SCM1'
p23
(I41
I47
tp24
sS'SCM2'
p25
(I47
I53
tp26
ssS'class_hierarchy'
p27
(dp28
g3
(lp29
S'MIXM1_subcl'
p30
asg5
(lp31
S'MIXM2_subcl'
p32
asg7
(lp33
S'SCF_subcl'
p34
asg9
(lp35
S'SMXF_subcl'
p36
asg11
(lp37
S'OCTM1_subcl'
p38
asg13
(lp39
S'OCTM2_subcl'
p40
asg15
(lp41
S'MIXF_subcl'
p42
asg17
(lp43
S'SMXM1_subcl'
p44
asg19
(lp45
S'SMXM2_subcl'
p46
asg21
(lp47
S'OTCF_subcl'
p48
asg23
(lp49
S'SCM1_subcl'
p50
asg25
(lp51
S'SCM2_subcl'
p52
assS'feats'
p53
(dp54
S'k__Bacteria.p__Proteobacteria.c__Alphaproteobacteria.o__Rickettsiales'
p55
(lp56
F2140.9108602569086
aF10008.103727714753
aF501.83362285273154
aF307.85807742630635
aF2219.667842562131
aF349.854227405248
aF4146.51002073255
aF6683.0542326010045
aF6545.762581340726
aF5407.271053842605
aF7252.183668563182
aF4869.818628014879
aF4029.627355413131
aF4933.437744714175
aF2877.4740444064228
aF497.9507411805264
aF0.0
aF1187.1936274509806
aF7811.00432668377
aF9420.234357049852
aF6776.157114964959
aF7274.119448698321
aF11802.575107296128
aF10030.243865089387
aF1990.7354236055291
aF6442.458871802735
aF11491.150271854387
aF3640.125680128744
aF1457.8377963630774
aF347.47693139261094
aF957.2675754326848
aF0.0
aF535.9672294322576
aF842.234217679262
aF191.4168676543777
aF694.2301758716438
aF0.0
aF3932.8999117104086
aF962.2416381201641
aF2758.459924627997
aF1654.4824932666413
aF4405.792659566312
aF7057.650262744047
aF3373.3277111204798
aF3427.691122665125
aF3678.724708767628
aF4220.218684059078
aF8725.099601593627
aF115.00421682128322
aF19450.751895805664
aF692.8673159090033
aF3475.0376462411646
aF231.28517462030678
aF1152.472052552725
aF892.4414092813902
aF1035.5540214014495
aF191.41686765437777
aF690.5547456456686
aF2666.8998382372265
aF2487.948997045558
aF2647.6343962242454
aF5438.529299119111
aF3834.649896464457
aF1962.2931896883426
aF5493.872219447536
aF1356.168629882207
aF1623.5648846109225
aF6008.5490765384375
aF1493.6519790888713
aF657.3096701852064
asS'k__Bacteria.p__Proteobacteria.c__Alphaproteobacteria.o__Rhizobiales'
p57
(lp58
F29349.941611521965
aF63168.557536466804
aF27562.246670526943
aF9081.813284076035
aF34365.214633953
aF46647.23032069972
aF41772.24909775015
aF56998.00276540166
aF58565.32286011321
aF63660.07056296966
aF66511.73972273416
aF58936.30890755013
aF18114.134397666643
aF25254.50274079875
aF10226.698292957957
aF11989.121691500362
aF23296.56325912947
aF6089.154411764707
aF39744.227897538
aF37987.28651298151
aF42111.71088396301
aF27526.799387442596
aF28586.756591048415
aF34761.30316603497
aF59147.812105202705
aF35471.87176439005
aF39524.92962634479
aF24714.53751245305
aF41893.654569170525
aF41542.79757538327
aF15546.025425026795
aF9849.762379273332
aF10489.644347459893
aF33115.11810420733
aF7273.840970866353
aF34750.07713668617
aF10288.224414303328
aF51850.06822377395
aF14125.707247604003
aF28788.997241540073
aF15659.869180454018
aF43215.07930426782
aF35403.32169843887
aF39444.93425844288
aF27151.935297515873
aF40772.5321888412
aF37022.82754651827
aF70717.13147410357
aF74867.74515065536
aF120474.70116961574
aF117056.08375995992
aF52897.79528167106
aF28409.528949194348
aF19592.02489339632
aF9351.233897252825
aF12618.41752003988
aF6355.040006125343
aF15268.932709276443
aF34363.66021072884
aF28067.17462292018
aF55024.74962587777
aF51014.936805821504
aF53493.36605567916
aF24009.23432089266
aF41453.76311037686
aF68273.40359578427
aF84309.40507943858
aF39196.7094120494
aF112927.95094532437
aF81738.39075126627
asS'k__Bacteria.p__Proteobacteria.c__Gammaproteobacteria.o__Pseudomonadales'
p59
(lp60
F26002.335539120264
aF43111.83144246356
aF25670.71993823588
aF5772.338951743244
aF66352.21372230373
aF44081.63265306125
aF8216.232818858942
aF2304.501459517588
aF9549.112471602939
aF2492.7136063813427
aF37623.20698773938
aF7553.9706277081195
aF2341.0216064781052
aF4111.198120595145
aF1477.621806587082
aF1378.9405140383808
aF2747.799769025528
aF1034.0073529411764
aF1876.1726078799252
aF38.29363559776363
aF267.9836147161283
aF0.0
aF613.1207847946042
aF421.1171088396308
aF4402.587956050689
aF4716.800245427003
aF9370.300389465156
aF4904.590390068202
aF10703.598557507854
aF44824.524149646815
aF1761.37233879614
aF9389.851295416214
aF344.5503617778799
aF3139.2366295317947
aF803.9508441483864
aF8677.877198395548
aF2620.2219482120845
aF29135.564652058736
aF3925.94588353027
aF5672.326042192783
aF18276.260100038475
aF0.0
aF345.2111541559588
aF0.0
aF1078.3747352204887
aF459.8405885959534
aF306.9249952042966
aF17091.63346613546
aF651.6905619872715
aF14352.42705968039
aF3579.8144655298497
aF13900.150584964655
aF33921.82561097833
aF1805.5395489992698
aF1241.6576129132386
aF690.3693476009662
aF803.9508441483865
aF3299.317118084861
aF21204.039697459906
aF2254.703778572536
aF2570.8913702467303
aF2106.472615855994
aF2147.403942020095
aF2770.296267795307
aF2497.214645203426
aF1123.6825790452572
aF2203.409486257681
aF11170.255665779508
aF2751.4641720058153
aF2938.5608784750407
asS'k__Bacteria.p__Proteobacteria.c__Gammaproteobacteria.o__Pseudomonadales.f__Pseudomonadaceae'
p61
(lp62
F1440.2491241728292
aF972.4473257698546
aF501.83362285273154
aF153.92903871315318
aF3131.3171350430075
aF7968.901846452871
aF2188.435844275513
aF1229.0674450760466
aF1155.134573177775
aF1303.880963337933
aF961.6155140636264
aF1687.1812569500366
aF1112.9446981617218
aF1801.0963194988256
aF505.5021969903175
aF191.51951583866398
aF756.6405161084786
aF689.3382352941178
aF1608.1479496113643
aF38.29363559776363
aF0.0
aF0.0
aF344.8804414469649
aF191.41686765437765
aF4326.021208988937
aF4448.364459101888
aF5398.526973354411
aF4827.956165223387
aF5102.432287270769
aF5019.111231226604
aF0.0
aF843.1703204047217
aF0.0
aF114.85012059262664
aF0.0
aF1002.7769207034855
aF346.79408138101115
aF3973.0315434625563
aF384.8966552480656
aF1048.9918023233226
aF884.9557522123895
aF0.0
aF153.42717962487058
aF0.0
aF1039.861351819757
aF306.5603923973023
aF306.9249952042966
aF5896.414342629481
aF115.00421682128322
aF8225.868643160105
aF1847.646175757342
aF2857.2531757982915
aF3045.2547991673723
aF192.07867542545418
aF232.8108024212322
aF38.353852644498126
aF153.13349412350223
aF652.1905931097981
aF2054.8244655270437
aF2254.703778572536
aF2340.662292314187
aF1723.4775947912674
aF1840.631950302939
aF2347.0565602154684
aF2228.283837258441
aF232.48605083694974
aF811.7824423054611
aF3871.2799419308058
aF1611.5718721748342
aF1275.954065653636
asS'k__Bacteria.p__Proteobacteria.c__Gammaproteobacteria.o__Cellvibrionales'
p63
(lp64
F467.10782405605266
aF526.7423014586711
aF2045.9370777842132
aF4656.353421072883
aF237.82155456022838
aF0.0
aF1497.3508408200878
aF4109.694269473031
aF462.05382927111003
aF2262.616965792296
aF400.6731308598443
aF1188.6958855784349
aF1842.1153624745743
aF1566.1707126076742
aF2022.0087879612695
aF421.34293484506077
aF477.87822070009173
aF612.7450980392157
aF6738.905693609528
aF7122.6162211840365
aF3598.6371119022947
aF3751.9142419601867
aF5977.927651747391
aF7656.674706175107
aF25956.12725393362
aF30946.81136633814
aF31311.456445455588
aF27741.58939382327
aF37059.77134965085
aF1003.8222462453205
aF0.0
aF229.95554192856048
aF0.0
aF727.3840970866354
aF1301.6347000497685
aF0.0
aF38.53267570900124
aF0.0
aF0.0
aF777.0309646839427
aF577.1450557906887
aF4405.792659566311
aF5868.589620651299
aF4446.659255567904
aF5738.494126709028
aF4176.8853464132435
aF4680.606176865523
aF159.3625498007968
aF115.00421682128322
aF771.1751852962599
aF0.0
aF0.0
aF424.022820137229
aF0.0
aF0.0
aF0.0
aF3215.8033765935465
aF0.0
aF393.4770253136892
aF10612.657440522453
aF6216.185104178662
aF10187.667560321714
aF7055.755809494601
aF4924.971142747213
aF2650.88939260056
aF0.0
aF2010.1279523754279
aF0.0
aF0.0
aF193.32637358388422
asS'k__Bacteria.p__Bacteroidota'
p65
(lp66
F73764.11054885168
aF30105.34846029176
aF45435.24416135884
aF7234.6648195182
aF9790.3206627294
aF7035.957240038878
aF436804.115795132
aF430557.68935320276
aF222940.97262331055
aF375556.0668814232
aF374989.98317172844
aF391502.7416695426
aF220708.44686648485
aF230971.0258418168
aF270793.6384492748
aF7392.653311372431
aF8561.984787543308
aF113166.36029411765
aF413523.75847149437
aF413915.90717622725
aF575054.5538072813
aF436485.4517611033
aF456506.7443286328
aF452624.3252555416
aF323341.37284177507
aF429957.4337538827
aF375236.1855550844
aF365775.1551843052
aF394460.2163738201
aF194432.64738813206
aF4097.105222851892
aF2146.2517246665648
aF229.70024118525325
aF497.6838559013821
aF995.3677118027641
aF8639.308855291567
aF29438.96424167693
aF22112.529095433016
aF8506.216080982253
aF14841.291425463301
aF9157.368218545596
aF513715.42410543194
aF633577.5382609031
aF519147.4680875529
aF465742.3454650493
aF423053.34150827763
aF559792.8256282366
aF385896.41434262943
aF4561.833933910902
aF13581.251874384136
aF4426.652296085298
aF3243.3684698250877
aF117261.58353249556
aF1882.371019169451
aF2987.7386310724805
aF920.492463467955
aF6967.573982619352
aF1841.479321721783
aF6951.427447208511
aF580897.2166070587
aF559648.5169410235
aF501072.3860589816
aF415561.0092798536
aF216275.49057329737
aF359791.0023435398
aF1046.1872287662738
aF10205.264988982939
aF252238.0837164292
aF3380.3702684642876
aF4059.853845261569
asS'k__Bacteria.p__Proteobacteria.c__Gammaproteobacteria.o__Pseudomonadales.f__Moraxellaceae.g__Acinetobacter'
p67
(lp68
F21642.662514597105
aF33752.02593192871
aF21308.627678054447
aF4463.942122681442
aF54897.14217765273
aF31642.371234207985
aF5067.956692006452
aF691.3504378552763
aF7161.8343537022065
aF958.7360024543626
aF31893.581216443603
aF5521.684113654666
aF575.6610507733044
aF1487.8621769772903
aF544.3869813741879
aF306.4312253418624
aF637.1709609334557
aF191.48284313725492
aF268.0246582685607
aF0.0
aF267.9836147161283
aF0.0
aF268.2403433476393
aF191.41686765437765
aF76.5667470617511
aF0.0
aF3354.798904870242
aF76.63422484481566
aF3452.7737282283406
aF25249.990347863062
aF1263.593199571144
aF6630.384792273493
aF306.26698824700435
aF2488.4192795069107
aF612.5339764940087
aF4666.769515581607
aF963.3168927250309
aF19503.973031543454
aF2655.7869212116534
aF2292.2413458176306
aF3732.2046941131207
aF0.0
aF191.78397453108823
aF0.0
aF38.51338340073173
aF38.320049049662785
aF0.0
aF2988.0478087649403
aF0.0
aF2013.6240949402343
aF808.345201893837
aF8996.486350824347
aF16575.43751445532
aF1459.7979332334519
aF737.2342076672353
aF230.12311586698874
aF574.2506029631332
aF2263.484999616358
aF17619.02680015741
aF0.0
aF191.85756494378583
aF382.9950210647261
aF306.7719917171565
aF423.2397075798385
aF230.51212109570082
aF542.4674519528828
aF734.4698287525603
aF2701.830792805875
aF628.906096458472
aF734.64021961876
asS'k__Bacteria.p__Proteobacteria.c__Alphaproteobacteria.o__Rhodobacterales.f__Rhodobacteraceae.g__Ruegeria'
p69
(lp70
F389684.7022187619
aF1377.6337115072943
aF4053.2715691951394
aF76040.94512429766
aF3131.317135043007
aF1788.1438289601565
aF3724.18029639868
aF7451.221385773532
aF3003.3498902622155
aF4755.330572173638
aF5529.289205865851
aF4371.333256643277
aF3223.701884330505
aF8300.704776820672
aF5055.021969903174
aF271574.6734592256
aF592210.5850025886
aF163449.75490196075
aF6164.567140176897
aF8041.663475530363
aF4287.737835458052
aF4479.326186830018
aF7664.009809932551
aF7962.941694422111
aF155621.91340300906
aF48280.09356904549
aF45077.700227509325
aF79316.42271438421
aF57814.77787155676
aF116481.98911238968
aF270676.97962934594
aF11919.362256630386
aF72011.02561157687
aF185750.9283718081
aF70326.55717621837
aF168273.68096266565
aF90705.91861898892
aF167870.61561923102
aF252954.08182902882
aF89669.37332452698
aF87610.61946902654
aF17163.43575204963
aF11315.254497334205
aF20086.63318894467
aF4775.659541690735
aF13488.657265481297
aF13734.893535392272
aF36175.298804780876
aF582381.3539829783
aF193093.6977850135
aF46191.154393933546
aF44017.14351905474
aF346118.26381928904
aF169451.80746033564
aF16529.566971907483
aF66543.93433820423
aF14853.948929979715
aF7557.738049566485
aF41052.76964106155
aF12012.128751360578
aF17574.15294885078
aF46074.30103408655
aF15376.946084822468
aF14467.102731819936
aF35806.2161435322
aF669172.3496590203
aF523019.8306853758
aF125332.68812000984
aF417318.50163122476
aF427328.6161698178
asS'k__Bacteria.p__Bacteroidota.c__Bacteroidia.o__Bacteroidales.f__Prevotellaceae.g__Prevotella'
p71
(lp72
F19540.677306344867
aF4051.8638573743947
aF5134.143987647177
aF38.482259678288294
aF436.0061833604187
aF0.0
aF0.0
aF0.0
aF0.0
aF38.349440098174504
aF0.0
aF460.1403428045555
aF882.6802778524002
aF0.0
aF0.0
aF0.0
aF119.46955517502293
aF76.59313725490196
aF0.0
aF0.0
aF0.0
aF0.0
aF344.8804414469648
aF0.0
aF382.8337353087555
aF0.0
aF0.0
aF0.0
aF0.0
aF52121.539708891636
aF536.0698422423034
aF229.95554192856048
aF0.0
aF0.0
aF38.283373530875544
aF0.0
aF7745.067817509248
aF4374.347860984026
aF1347.1382933682298
aF2913.866117564785
aF1577.5298191612158
aF536.3573672515511
aF0.0
aF0.0
aF0.0
aF0.0
aF0.0
aF76932.27091633464
aF191.6736947021387
aF6940.576667666341
aF0.0
aF733.6190586509126
aF10716.213090740877
aF0.0
aF0.0
aF230.12311586698874
aF2067.3021706672803
aF115.09245760761142
aF218.59834739649398
aF0.0
aF38.37151298875717
aF919.1880505553427
aF0.0
aF38.476337052712594
aF0.0
aF0.0
aF0.0
aF67505.44398741842
aF510.98620337250844
aF0.0
asS'k__Bacteria.p__Proteobacteria.c__Alphaproteobacteria.o__Rhizobiales.f__Rhizobiales_Incertae_Sedis.g__Anderseniella'
p73
(lp74
F0.0
aF0.0
aF0.0
aF153.92903871315318
aF0.0
aF0.0
aF460.72333563695014
aF1037.0256567829144
aF885.6031727696276
aF843.687682159839
aF440.7404439458287
aF881.9356570420646
aF0.0
aF1840.2505873140174
aF0.0
aF268.1273221741296
aF358.4086655250688
aF153.18627450980392
aF344.60313205957806
aF382.9363559776363
aF229.70024118525285
aF191.42419601837688
aF153.28019619865105
aF38.28337353087553
aF15045.365797634091
aF4026.53679487671
aF3624.725253537962
aF114.9513372672235
aF230.1849152152227
aF849.3880545152712
aF1914.5351508653696
aF804.8443967499617
aF1110.2178323953906
aF2947.819761877417
aF574.2506029631331
aF2159.827213822892
aF693.5881627620222
aF2167.10811461594
aF731.3036449713247
aF543.9216752787598
aF0.0
aF268.1786836257755
aF383.56794906217647
aF383.332694445509
aF77.02676680146347
aF459.8405885959534
aF306.9249952042966
aF3346.613545816733
aF21505.788545579962
aF18422.518315410656
aF0.0
aF0.0
aF2004.4715133759921
aF153.66294034036335
aF232.8108024212322
aF230.12311586698874
aF153.13349412350223
aF153.4566101434819
aF2273.4228129235375
aF583.1130461825525
aF575.5726948313575
aF1953.2746074301033
aF651.8904823989576
aF577.145055790689
aF998.8858580813703
aF19567.57594544327
aF24392.129575940286
aF766.1908218404719
aF668.2127274871266
aF734.64021961876
asS'k__Bacteria.p__Bacteroidota.c__Bacteroidia'
p75
(lp76
F73764.11054885168
aF30105.34846029176
aF45435.24416135884
aF7234.6648195182
aF9790.3206627294
aF7035.957240038878
aF436189.81801428273
aF430212.01413427514
aF222940.97262331055
aF375556.0668814232
aF374629.37735395454
aF390697.4960696346
aF220209.54062248132
aF229718.08927173066
aF269316.0166426877
aF7392.653311372431
aF8561.984787543308
aF113089.76715686276
aF412604.81678600213
aF413532.9708202496
aF574250.6029631329
aF436255.7427258812
aF456161.8638871858
aF452241.4915202328
aF322958.53910646634
aF429382.21421175747
aF375120.50283422676
aF365008.8129358571
aF393961.4823908538
aF194432.64738813206
aF4097.105222851892
aF2069.5998773570445
aF229.70024118525325
aF497.6838559013821
aF995.3677118027641
aF8639.308855291567
aF29438.96424167693
aF22112.529095433016
aF8506.216080982253
aF14841.291425463301
aF9157.368218545596
aF511493.37215538975
aF628361.0141536574
aF515850.80691532133
aF464702.48411322956
aF420179.33782955294
aF556953.7694225969
aF385896.41434262943
aF4561.833933910902
aF13581.251874384136
aF4426.652296085298
aF3243.3684698250877
aF116914.65577056509
aF1882.371019169451
aF2987.7386310724805
aF920.492463467955
aF6967.573982619352
aF1841.479321721783
aF6951.427447208511
aF579925.3615300877
aF559188.0587851586
aF500382.99502106506
aF414410.61431091424
aF215890.72720277027
aF359791.0023435398
aF1046.1872287662738
aF10205.264988982939
aF248165.17461085616
aF3380.3702684642876
aF4059.853845261569
asS'k__Bacteria.p__Acidobacteriota'
p77
(lp78
F1673.8030362008553
aF6361.4262560778
aF8994.40262497588
aF1885.6307242361263
aF7808.474374727498
aF11078.717201166186
aF998.2338938800586
aF76.81671531725291
aF1270.6480304955523
aF2224.267525694121
aF280.471191601891
aF36197.70696729166
aF32045.131826380602
aF469.8512137823023
aF2177.5479254967518
aF0.0
aF0.0
aF382.9656862745099
aF957.230922387717
aF38.29363559776363
aF114.85012059262642
aF114.85451761102611
aF191.6002452483138
aF114.8501205926266
aF1454.7681941732708
aF1457.2228400506187
aF1619.5580920063235
aF1647.6358341635366
aF1381.1094912913363
aF15443.419173004932
aF0.0
aF1111.4517859880423
aF0.0
aF114.85012059262664
aF191.4168676543777
aF24259.48781240356
aF0.0
aF4454.61112448832
aF423.38632077287224
aF10528.76957146742
aF6079.2612543285895
aF76.62248103593586
aF38.356794906217644
aF38.3332694445509
aF1270.9416522241472
aF76.64009809932557
aF153.4624976021483
aF4382.470119521911
aF7896.956221728117
aF1927.9379632406499
aF731.3599445706145
aF115.83458820803882
aF4240.228201372292
aF0.0
aF38.80180040353871
aF0.0
aF38.28337353087556
aF0.0
aF19367.81357932935
aF1438.345513916963
aF959.2878247189293
aF727.6905400229796
aF766.9299792928912
aF846.479415159677
aF307.3494947942678
aF271.23372597644135
aF193.28153388225266
aF27945.802080813
aF157.226524114618
aF0.0
asS'k__Bacteria.p__Proteobacteria.c__Alphaproteobacteria.o__Sphingomonadales.f__Sphingomonadaceae.g__Sphingomonas'
p79
(lp80
F14130.011677695593
aF43152.35008103731
aF23624.78286045167
aF7427.076117909641
aF36822.704031075365
aF23168.12439261421
aF3570.6058511863635
aF614.5337225380233
aF5121.096607754803
aF383.494400981745
aF11258.914977161627
aF4448.023313777369
aF1535.0961353954788
aF1448.707909162099
aF661.0413345257997
aF651.1663538514576
aF637.1709609334556
aF382.96568627450984
aF0.0
aF0.0
aF0.0
aF0.0
aF229.92029429797657
aF0.0
aF0.0
aF306.7837558001303
aF231.36544171518906
aF0.0
aF959.1038133967613
aF18068.800432415774
aF1148.7210905192217
aF3411.007205273647
aF191.4168676543777
aF1454.7681941732708
aF574.2506029631331
aF2931.194075902497
aF963.3168927250308
aF10554.619150814668
aF5388.553173472919
aF3574.342437546136
aF4501.731435167373
aF153.24496207187173
aF38.356794906217644
aF0.0
aF0.0
aF0.0
aF0.0
aF8844.621513944221
aF0.0
aF10410.865001499511
aF654.374687247392
aF1698.9072937179028
aF5550.844190887363
aF422.5730859359992
aF1668.4774173521641
aF76.70770528899625
aF957.0843382718889
aF1879.8434742576533
aF5464.95868491235
aF0.0
aF0.0
aF382.995021064726
aF115.03949689393369
aF0.0
aF0.0
aF1046.187228766274
aF773.1261355290106
aF2621.179127348983
aF196.5331551432725
aF1623.9415381046274
asS'k__Bacteria.p__Desulfobacterota.c__Desulfovibrionia.o__Desulfovibrionales.f__Desulfovibrionaceae'
p81
(lp82
F6773.063448812764
aF18638.573743922214
aF3512.8353599691204
aF1693.219425844685
aF7927.385152007612
aF9601.554907677362
aF0.0
aF76.81671531725291
aF0.0
aF0.0
aF0.0
aF0.0
aF115.13221015466088
aF0.0
aF0.0
aF0.0
aF0.0
aF0.0
aF38.28923689550868
aF191.46817798881816
aF0.0
aF459.41807044410444
aF1264.561618638871
aF1799.31855595115
aF0.0
aF0.0
aF0.0
aF0.0
aF0.0
aF3436.1607659935976
aF0.0
aF0.0
aF0.0
aF76.56674706175109
aF0.0
aF0.0
aF115.5980271270037
aF0.0
aF115.46899657441969
aF0.0
aF0.0
aF56585.70224503863
aF9780.9827010855
aF48031.58661402228
aF1502.0219526285377
aF115381.66768853464
aF24055.246499136738
aF1035.8565737051792
aF115.00421682128322
aF0.0
aF0.0
aF0.0
aF3430.730090201217
aF153.66294034036335
aF0.0
aF0.0
aF38.28337353087556
aF76.72830507174095
aF131.15900843789638
aF272.1194215518578
aF76.74302597751434
aF114.89850631941783
aF76.69299792928912
aF0.0
aF0.0
aF0.0
aF0.0
aF3064.7632873618877
aF0.0
aF0.0
asS'k__Bacteria.p__Actinobacteriota.c__Acidimicrobiia'
p83
(lp84
F506.0334760607238
aF0.0
aF463.23103647944447
aF115.44677903486487
aF2893.4955804827787
aF5325.5587949465535
aF691.0850034554252
aF2919.0351820556107
aF2233.2601748103657
aF2646.111366774041
aF4607.74100488821
aF4716.438513746694
aF3914.4951452584705
aF0.0
aF1905.3544348096577
aF0.0
aF0.0
aF0.0
aF497.76007964161283
aF804.1663475530362
aF421.1171088396302
aF229.70903522205222
aF268.2403433476393
aF574.2506029631329
aF38.28337353087555
aF268.43578632511395
aF771.2181390506303
aF536.4395739137096
aF460.3698304304454
aF8107.795065827588
aF114.87210905192217
aF421.58516020236084
aF38.283373530875544
aF153.13349412350217
aF0.0
aF2854.057389694536
aF0.0
aF40.13163175214703
aF192.44832762403283
aF271.9608376393799
aF577.1450557906887
aF421.4236456976472
aF383.56794906217647
aF689.9988500019161
aF385.1338340073173
aF689.7608828939302
aF920.7749856128897
aF0.0
aF1380.050601855399
aF3341.7591362837934
aF808.3452018938372
aF386.1152940267961
aF2389.9468044098367
aF0.0
aF0.0
aF0.0
aF153.13349412350223
aF0.0
aF1705.067109692653
aF1593.8423262323101
aF2072.0617013928872
aF3829.950210647261
aF1265.4344658332707
aF1154.290111581378
aF1844.0969687656068
aF309.981401115933
aF347.90676098805477
aF18267.602225985986
aF275.1464172005815
aF193.32637358388422
asS'k__Bacteria.p__Proteobacteria.c__Alphaproteobacteria.o__Rhizobiales.f__Rhizobiales_Incertae_Sedis'
p85
(lp86
F272.4795640326974
aF0.0
aF0.0
aF692.6806742091893
aF832.3754409607993
aF0.0
aF537.5105582431084
aF1037.0256567829144
aF885.6031727696276
aF882.0371222580136
aF440.7404439458287
aF1342.07599984662
aF767.5480676977392
aF2153.484729835552
aF0.0
aF268.1273221741296
aF358.4086655250688
aF153.18627450980392
aF344.60313205957806
aF382.9363559776363
aF229.70024118525285
aF191.42419601837688
aF153.28019619865105
aF38.28337353087553
aF15045.365797634091
aF4026.53679487671
aF3624.725253537962
aF114.9513372672235
aF306.9132202869636
aF1467.1248214354684
aF1914.5351508653696
aF804.8443967499617
aF1110.2178323953906
aF2947.819761877417
aF574.2506029631331
aF2969.7624190064766
aF693.5881627620222
aF2929.6091179067334
aF923.7519725953575
aF1204.397995260111
aF0.0
aF268.1786836257755
aF383.56794906217647
aF383.332694445509
aF77.02676680146347
aF459.8405885959534
aF306.9249952042966
aF3346.613545816733
aF21620.792762401245
aF19793.496422604007
aF1039.3009738635049
aF926.6767056643106
aF2004.4715133759921
aF153.66294034036335
aF232.8108024212322
aF230.12311586698874
aF153.13349412350223
aF153.4566101434819
aF2929.217855113019
aF583.1130461825525
aF575.5726948313575
aF1953.2746074301033
aF651.8904823989576
aF577.145055790689
aF998.8858580813703
aF19722.56664600124
aF24585.41110982254
aF766.1908218404719
aF668.2127274871266
aF734.64021961876
asS'k__Bacteria.p__Cyanobacteria'
p87
(lp88
F0.0
aF850.8914100486229
aF0.0
aF0.0
aF1268.381624321218
aF1477.162293488825
aF2265.223066881672
aF4071.2859118144047
aF770.08971545185
aF3221.3529682466583
aF4888.212196490102
aF1380.4210284136664
aF575.6610507733044
aF665.6225528582617
aF894.3500408290232
aF0.0
aF0.0
aF38.29656862745098
aF2335.6434506260293
aF650.9918051619818
aF689.1007235557585
aF918.8361408882089
aF2069.2826486817894
aF3713.4872324949265
aF2564.986026568662
aF5982.283238102541
aF5051.478810781628
aF3486.857230439113
aF2455.3057622957094
aF810.7795065827589
aF0.0
aF114.97777096428024
aF0.0
aF0.0
aF0.0
aF0.0
aF115.5980271270037
aF280.9214222650292
aF307.91732419845255
aF0.0
aF423.2397075798384
aF3984.3690138686648
aF1879.4829504046645
aF3373.3277111204793
aF2233.776237242441
aF5977.9276517473945
aF5179.359294072505
aF159.3625498007968
aF0.0
aF2399.211687588364
aF230.95577196966775
aF308.89223522143686
aF1811.7338678590697
aF230.494410510545
aF0.0
aF0.0
aF0.0
aF0.0
aF1792.5064486512506
aF10962.525268231986
aF22639.19266336673
aF25967.062428188427
aF6327.172329166353
aF4809.542131589074
aF12678.166660263543
aF0.0
aF0.0
aF362.932494556013
aF0.0
aF0.0
asS'k__Bacteria.p__Proteobacteria.c__Gammaproteobacteria.o__Enterobacterales.f__Enterobacteriaceae'
p89
(lp90
F0.0
aF2147.487844408429
aF8531.171588496434
aF384.82259678288295
aF1189.107772801142
aF4897.959183673473
aF0.0
aF0.0
aF423.54934349851766
aF38.349440098174504
aF3686.1928039105674
aF0.0
aF1151.322101546609
aF1801.0963194988256
aF1127.6587471322466
aF306.4312253418624
aF756.6405161084786
aF574.4485294117648
aF0.0
aF0.0
aF76.56674706175095
aF0.0
aF0.0
aF0.0
aF535.9672294322577
aF38.347969475016285
aF347.04816257278367
aF229.902674534447
aF0.0
aF10849.001969035964
aF957.2675754326847
aF1073.1258623332824
aF38.283373530875544
aF459.40048237050655
aF38.283373530875544
aF1542.7337241592088
aF462.3921085080148
aF2688.819327393851
aF577.3449828720985
aF1592.9134776020824
aF1192.76644863409
aF0.0
aF0.0
aF76.6665388891018
aF0.0
aF0.0
aF0.0
aF10517.928286852588
aF191.6736947021387
aF11910.372306242236
aF538.896801262558
aF695.007529248233
aF2775.4220954436814
aF460.98882102109
aF737.2342076672353
aF536.9539370229737
aF267.98361471612884
aF1227.6528811478552
aF1399.0294233375614
aF0.0
aF76.74302597751434
aF0.0
aF0.0
aF38.476337052712594
aF0.0
aF697.4581525108492
aF695.8135219761095
aF3185.7407855472256
aF746.8259895444355
aF1546.6109886710738
asS'k__Bacteria.p__Proteobacteria.c__Gammaproteobacteria.o__Vibrionales.f__Vibrionaceae.g__Vibrio'
p91
(lp92
F18917.866874270134
aF24392.220421393853
aF116811.42636556659
aF419995.3821288385
aF6064.449641285824
aF112730.80660835771
aF3685.786685095601
aF2842.2184667383576
aF17404.027569211812
aF11773.27811013957
aF4287.202500200335
aF2108.9765711875457
aF191.88701692443482
aF548.1597494126861
aF4121.78714469028
aF482820.69942927203
aF97088.9251722353
aF125000.00000000001
aF79143.85266301643
aF57976.56429501413
aF7158.990850273714
aF7197.54977029097
aF6246.167995095031
aF13399.180735806434
aF12710.080012250677
aF7938.029681328371
aF3547.603439632899
aF47513.21940378571
aF9897.951354254577
aF65982.00841666355
aF957.2675754326848
aF1877.9702590832437
aF1110.2178323953906
aF10757.627962176028
aF67531.87090846444
aF0.0
aF21308.56966707768
aF3692.1101211975265
aF95146.45317732182
aF4739.888884572051
aF5001.923816852636
aF24940.61757719712
aF35863.60323731349
aF19818.300302832813
aF33468.13017523588
aF19389.944819129374
aF24515.633991943185
aF199.203187250996
aF4830.177106493897
aF28362.109592562454
aF517456.40709804074
aF529171.0104637241
aF5281.011487163671
aF103991.39487534088
aF3026.540431476019
aF1342.3848425574345
aF6546.45687377972
aF498.7339829663161
aF3497.573558343904
aF10185.04120665525
aF16883.465715053157
aF17349.674454232092
aF127693.84155226637
aF531127.3566756445
aF61431.48027200427
aF2751.0849349039054
aF25087.94309791639
aF0.0
aF52631.57894736837
aF7307.736921470824
asS'k__Bacteria.p__Bacteroidota.c__Bacteroidia.o__Cytophagales'
p93
(lp94
F311.40521603736846
aF2593.1928687196123
aF810.6543138390279
aF192.41129839144148
aF356.7323318403425
aF233.23615160349868
aF1727.712508638563
aF3034.2602550314905
aF1963.7287744022176
aF2799.509127166739
aF1322.2213318374863
aF2569.1169139921017
aF4490.156196031774
aF4620.203602192639
aF3421.86102578061
aF38.3039031677328
aF39.82318505834098
aF1416.9730392156862
aF14779.645441666346
aF6969.441678792981
aF11638.145553386144
aF6661.562021439516
aF14791.538933169826
aF4938.555185482944
aF5665.939282569581
aF9126.816735053875
aF6439.671461072764
aF7931.6422714384225
aF6138.264405739273
aF1853.2103007605917
aF0.0
aF229.95554192856048
aF0.0
aF0.0
aF0.0
aF0.0
aF0.0
aF0.0
aF38.48966552480657
aF0.0
aF1038.8611004232396
aF21875.718335759688
aF30263.51118100572
aF33196.61133898108
aF12054.689004429032
aF14638.258736971182
aF21906.771532706665
aF199.203187250996
aF920.0337345702658
aF1499.507304742728
aF0.0
aF347.5037646241165
aF1117.8783439981494
aF115.2472052552725
aF77.60360080707741
aF38.353852644498126
aF0.0
aF383.6415253587047
aF568.3557032308844
aF12012.12875136058
aF7635.9310847626775
aF5400.229797012638
aF6787.330316742088
aF2577.9145825317446
aF1997.7717161627402
aF0.0
aF193.28153388225266
aF2540.5274618920907
aF0.0
aF0.0
asS'k__Bacteria.p__Bacteroidota.c__Bacteroidia.o__Flavobacteriales'
p95
(lp96
F1751.6543402101972
aF2552.6742301458685
aF2779.386218876667
aF6041.714769491262
aF1744.024733441675
aF1516.034985422741
aF154188.74299316597
aF232178.5220463968
aF184051.44199299213
aF244784.47614664774
aF289406.2024200656
aF273630.1238544423
aF10899.182561307896
aF16953.79796397807
aF11665.435315161167
aF7162.829892366034
aF8323.045677193264
aF8731.617647058822
aF282919.1714209139
aF283794.1334150264
aF455954.97875272704
aF255359.8774885147
aF294604.5370938075
aF253703.91638911216
aF202136.21224302283
aF263603.94217126205
aF226468.20653221753
aF223925.20499655133
aF233407.50402823574
aF11312.304544226112
aF191.45351508653695
aF996.4740150237621
aF229.70024118525325
aF382.83373530875554
aF535.9672294322576
aF1812.7121258870702
aF3814.7348951911226
aF4013.163175214704
aF2232.4006004387807
aF4157.115661059093
aF3924.5863793766835
aF314880.08581717854
aF515208.4691803157
aF388584.3523594126
aF367186.59734257654
aF258277.13059472735
aF439631.6900057545
aF2509.96015936255
aF2913.4401594725086
aF4327.149650829015
aF3464.336579545016
aF1351.4035290937861
aF50574.35818364041
aF806.7304367869076
aF1125.2522117026224
aF345.18467380048315
aF612.5339764940088
aF920.7396608608914
aF3716.171905740398
aF452495.7238376608
aF431410.9205325969
aF378399.08081194956
aF308497.5841705658
aF145748.36475567525
aF265549.96350224735
aF697.4581525108493
aF7692.605048513657
aF14275.344785869846
aF2279.7845996619612
aF3789.1969222441317
asS'k__Bacteria.p__Proteobacteria.c__Alphaproteobacteria.o__Rhizobiales.f__Stappiaceae.g__Labrenzia'
p97
(lp98
F8407.94083300895
aF243.11183144246365
aF0.0
aF1962.5952435927031
aF118.91077728011419
aF1593.7803692905743
aF4799.201412884897
aF5914.887079428475
aF8355.473412652573
aF9050.467863169182
aF9255.549322862404
aF5636.719199355804
aF652.4158575430783
aF548.159749412686
aF544.3869813741879
aF9729.191404604131
aF18955.836087770305
aF3370.098039215686
aF5973.1209556993535
aF4327.18082254729
aF3407.220244247917
aF3292.496171516082
aF4100.245248313916
aF4747.138317828566
aF4096.320967803684
aF4371.668520151856
aF6285.427833262636
aF5441.029963981912
aF18222.972454538463
aF15597.853364734981
aF6968.907949149945
aF881.4962440594818
aF5206.538800199074
aF17304.084835955746
aF4287.7378354580605
aF3394.014193150259
aF2658.7546239210856
aF4374.347860984027
aF6774.181132365955
aF4623.3342398694585
aF3270.4886494805696
aF2298.6744310780755
aF1802.7693605922293
aF1648.3305861156887
aF2888.50375505488
aF2414.1630901287554
aF1572.99060042202
aF876.4940239043824
aF2990.1096373533637
aF856.8613169958444
aF47961.81531236767
aF25174.717170547105
aF9829.619921363037
aF10948.484499250888
aF4229.396243985719
aF6405.093391631187
aF2220.435664790782
aF10319.957032149157
aF8000.699514711679
aF1943.7101539418418
aF1419.7459805840151
aF4902.336269628494
aF2224.0969399493847
aF4732.589457483649
aF4763.91716931115
aF5424.674519528828
aF3904.286984421504
aF1572.7074764093898
aF102668.92024684556
aF74005.33580791089
asS'k__Bacteria.p__Proteobacteria.c__Gammaproteobacteria.o__Pseudomonadales.f__Moraxellaceae.g__Enhydrobacter'
p99
(lp100
F2101.9852082522375
aF6969.205834683958
aF3281.2198417293985
aF577.2338951743244
aF8323.754409607993
aF4042.759961127311
aF959.8402825769795
aF38.40835765862646
aF1116.6300874051826
aF0.0
aF4247.13518711435
aF306.76022853637033
aF76.75480676977392
aF274.079874706343
aF77.76956876774115
aF229.8234190063968
aF796.4637011668195
aF153.18627450980392
aF0.0
aF0.0
aF0.0
aF0.0
aF0.0
aF38.28337353087553
aF0.0
aF76.69593895003257
aF77.12181390506302
aF0.0
aF0.0
aF3050.075286668474
aF497.7791392249961
aF689.8666257856814
aF38.283373530875544
aF459.40048237050655
aF191.4168676543777
aF539.956803455723
aF539.4574599260172
aF3371.0570671803507
aF423.3863207728722
aF1320.9526399627025
aF12235.475182762602
aF0.0
aF0.0
aF0.0
aF0.0
aF114.96014714898836
aF0.0
aF4701.195219123505
aF268.34317258299416
aF4112.934321580054
aF923.823087878671
aF733.6190586509125
aF8403.361344537814
aF38.41573508509084
aF271.6126028247709
aF268.47696851148686
aF76.56674706175112
aF306.9132202869638
aF1355.3097538582626
aF0.0
aF38.37151298875717
aF0.0
aF0.0
aF0.0
aF38.418686849283475
aF271.23372597644135
aF541.1882948703075
aF483.9099927413507
aF39.3066310286545
aF502.648571318099
asS'k__Bacteria.p__Firmicutes.c__Clostridia'
p101
(lp102
F8485.792137018292
aF6645.056726094009
aF31615.51823972208
aF615.7161548526127
aF6619.3666019263555
aF11972.789115646267
aF38.393611303079176
aF307.26686126901166
aF269.5314004081475
aF191.7472004908725
aF4367.337126372302
aF153.38011426818517
aF422.15143723375655
aF1292.090837901331
aF1905.3544348096577
aF0.0
aF0.0
aF1034.0073529411764
aF15583.719416472031
aF53802.5580148579
aF24271.658818575048
aF71630.93415007662
aF30311.15879828325
aF44025.879560506866
aF0.0
aF191.7398473750814
aF925.4617668607563
aF38.31711242240783
aF115.09245760761135
aF19690.35944558128
aF1416.7560116403738
aF1073.1258623332822
aF0.0
aF76.56674706175109
aF229.70024118525325
aF1311.3236655353276
aF2851.418002466092
aF1163.817320812264
aF5965.898156345019
aF2408.795990520222
aF1038.8611004232396
aF51950.04214236452
aF13616.662191707264
aF39329.93445010922
aF18640.47756595416
aF70508.89025137952
aF21177.824669096466
aF46852.589641434264
aF76.66947788085548
aF8054.496379760938
aF24442.819200123173
aF2239.468705355417
aF34114.56325649526
aF268.9101455956358
aF1823.6846189663195
aF306.830821155985
aF689.1007235557599
aF345.2773728228343
aF1442.7490928168602
aF1127.351889286268
aF35033.1913587353
aF9076.981999234009
aF1533.8599585857826
aF230.8580223162756
aF200699.22010065685
aF348.7290762554247
aF2164.75317948123
aF25002.016291636457
aF628.906096458472
aF386.65274716776844
asS'k__Bacteria.p__Proteobacteria.c__Gammaproteobacteria.o__Vibrionales.f__Vibrionaceae'
p103
(lp104
F18917.866874270134
aF25567.260940032425
aF119590.81258444324
aF422419.7644885706
aF6500.455824646243
aF113469.38775510213
aF3916.148352914076
aF3802.4274082040197
aF17827.576912710327
aF12118.423071023139
aF6490.904719929479
aF3144.2923424977957
aF2839.9278504816357
aF2545.0274079874707
aF5793.832873196715
aF491094.3425135023
aF114412.01067261361
aF129940.25735294119
aF79182.14189991193
aF57976.56429501413
aF7273.840970866341
aF7197.54977029097
aF6974.248927038624
aF13628.880976991686
aF13131.197121090308
aF8551.597192928633
aF3547.603439632899
aF48930.952563414794
aF10396.685337220892
aF70923.90255202515
aF1148.7210905192217
aF1954.622106392764
aF1110.2178323953906
aF10834.19470923778
aF68297.53837908195
aF0.0
aF21385.635018495683
aF3692.1101211975265
aF99726.7233747738
aF4739.888884572051
aF7233.551365909965
aF25170.48502030493
aF35978.67362203214
aF19818.300302832813
aF33468.13017523588
aF19389.944819129374
aF24515.633991943185
aF199.203187250996
aF5251.859234838602
aF28362.109592562454
aF560953.0774856614
aF555890.1888103782
aF6861.460180402434
aF104682.87810687251
aF4423.405246003412
aF1534.154105779925
aF6546.45687377972
aF498.7339829663161
aF3497.573558343904
aF16327.165293111468
aF16883.465715053157
aF17349.674454232092
aF127693.84155226637
aF531127.3566756445
aF61585.1550194014
aF2751.0849349039054
aF25590.47508601025
aF0.0
aF52985.33862662627
aF7385.067470904378
asS'k__Bacteria.p__Cyanobacteria.c__Cyanobacteriia'
p105
(lp106
F0.0
aF850.8914100486229
aF0.0
aF0.0
aF872.0123667208373
aF1477.162293488825
aF2265.223066881672
aF3956.0608388385253
aF770.08971545185
aF3183.003528148484
aF4487.539065630257
aF1380.4210284136664
aF383.77403384886964
aF469.8512137823023
aF388.8478438387057
aF0.0
aF0.0
aF38.29656862745098
aF2259.0649768350117
aF650.9918051619818
aF689.1007235557585
aF918.8361408882089
aF2069.2826486817894
aF3713.4872324949265
aF2450.1359059760352
aF5560.4555738773615
aF4820.113369066439
aF2758.8320944133643
aF2148.3925420087453
aF193.04273966256164
aF0.0
aF114.97777096428024
aF0.0
aF0.0
aF0.0
aF0.0
aF115.5980271270037
aF280.9214222650292
aF307.91732419845255
aF0.0
aF423.2397075798384
aF3869.4352923147608
aF1380.8446166238352
aF3258.3279027868266
aF1964.1825534373186
aF5977.9276517473945
aF5179.359294072505
aF159.3625498007968
aF0.0
aF2399.211687588364
aF230.95577196966775
aF308.89223522143686
aF0.0
aF230.494410510545
aF0.0
aF0.0
aF0.0
aF0.0
aF1792.5064486512506
aF10457.160628207108
aF21871.762403591587
aF24894.67636920719
aF6097.093335378486
aF4617.160446325512
aF12678.166660263543
aF0.0
aF0.0
aF362.932494556013
aF0.0
aF0.0
asS'k__Bacteria.p__Proteobacteria.c__Alphaproteobacteria.o__Rhodobacterales.f__Rhodobacteraceae.g__Paracoccus'
p107
(lp108
F934.2156481121053
aF2269.0437601296608
aF0.0
aF500.26937581774774
aF4122.240279043958
aF1516.0349854227416
aF729.4786147585044
aF1459.5175910278053
aF693.0807439066651
aF460.193281178094
aF2724.5772898469413
aF651.8654856397869
aF729.1706643128524
aF1057.1652310101802
aF1905.354434809658
aF268.1273221741296
aF955.7564414001835
aF1340.3799019607843
aF0.0
aF0.0
aF0.0
aF0.0
aF76.64009809932553
aF0.0
aF1531.3349412350217
aF2646.009893776123
aF2120.849882389233
aF2490.6123074565094
aF3030.768050333766
aF5019.111231226603
aF5935.058967682646
aF1877.970259083244
aF5397.955667853451
aF13552.314229929942
aF2564.986026568661
aF4551.064486269665
aF4045.930949445129
aF6782.245766112847
aF3233.1319040837516
aF2253.3897975834334
aF41554.444016929585
aF421.4236456976472
aF997.2766675616588
aF651.6655805573653
aF1039.861351819757
aF1072.9613733905578
aF1572.99060042202
aF3984.06374501992
aF1341.715862914971
aF685.4890535966755
aF52696.40863774585
aF15097.107996447727
aF4008.9430267519842
aF4340.978064615265
aF698.4324072636966
aF4602.462317339775
aF2794.686267753915
aF383.6415253587047
aF1967.3851265684457
aF1399.4713108381259
aF1880.2041364491013
aF1417.0815779394864
aF1687.2459544443607
aF692.5740669488267
aF384.18686849283466
aF658.7104773713577
aF1971.4716455989771
aF0.0
aF3105.2238512637055
aF541.3138460348758
asS'k__Bacteria.p__Proteobacteria.c__Gammaproteobacteria.o__Oceanospirillales'
p109
(lp110
F3931.490852471777
aF12682.333873581854
aF6639.644856205372
aF3540.367890402523
aF5786.991160965557
aF9096.20991253645
aF5221.531137218769
aF6452.604086649245
aF7623.888182973316
aF8705.322902285612
aF20875.070117797884
aF65416.61873538097
aF4490.156196031774
aF4541.895066562255
aF5055.021969903175
aF306.4312253418624
aF9597.387599060175
aF2450.9803921568628
aF24466.822376230048
aF10071.226162211835
aF24845.90942153818
aF19601.837672281792
aF17129.061925199254
aF20787.871827265415
aF6814.4404884958485
aF7938.029681328369
aF7210.889600123393
aF6092.420875162846
aF9130.668303537166
aF7567.275394772417
aF1225.3024965538366
aF383.2592365476008
aF0.0
aF1454.7681941732708
aF191.4168676543777
aF7212.2801604443
aF1117.447595561036
aF10394.09262380608
aF1655.0556175666825
aF7381.794164497455
aF3462.870334744133
aF24251.015247873704
aF2646.6188485290177
aF20546.63242227928
aF126709.03138840741
aF6667.688534641325
aF34183.771340878535
aF15976.095617529882
aF383.34738940427746
aF22835.354097939253
aF461.9115439393355
aF2934.4762346036505
aF7555.315704263356
aF614.6517613614534
aF1978.891820580474
aF460.2462317339775
aF153.13349412350223
aF1266.0170336837257
aF4415.686617409179
aF67446.7423417819
aF10820.766662829521
aF17694.369973190347
aF21704.11841398882
aF11465.948441708348
aF1767.2595950670395
aF2092.3744575325477
aF3981.5995979744043
aF6976.36906202114
aF1100.585668802326
aF2474.577581873719
asS'k__Bacteria.p__Verrucomicrobiota'
p111
(lp112
F1128.8439081354607
aF1053.4846029173425
aF772.0517274657407
aF115.44677903486487
aF2140.3939910420554
aF2099.1253644314884
aF268.7552791215542
aF0.0
aF423.54934349851754
aF460.19328117809397
aF1041.750140235595
aF5598.374170788759
aF10822.42775453812
aF1722.787783868442
aF2488.6262005677168
aF612.8624506837248
aF955.7564414001833
aF344.66911764705884
aF957.230922387717
aF268.0554491843454
aF574.2506029631321
aF267.9938744257276
aF536.4806866952786
aF765.6674706175105
aF995.3677118027641
aF3758.1010085515954
aF2313.6544171518913
aF1494.3673844739058
aF4181.692626409879
aF1351.2991776379317
aF3599.3260836268946
aF996.4740150237619
aF497.68385590138206
aF1799.3185559511505
aF4058.037594272808
aF5823.819808701012
aF154.13070283600496
aF802.6326350429405
aF0.0
aF2836.163021096391
aF2808.772604848019
aF229.86744310780756
aF191.78397453108823
aF153.3330777782036
aF3042.5572886578075
aF728.0809319435929
aF1266.0656052177233
aF119.5219123505976
aF3833.473894042774
aF4327.149650829015
aF0.0
aF1003.8997644696699
aF67496.72346002619
aF921.97764204218
aF155.20720161415483
aF115.06155793349437
aF0.0
aF115.09245760761142
aF3585.012897302502
aF1438.3455139169628
aF2686.0059092130014
aF2297.9701263883567
aF1112.0484699746924
aF692.5740669488268
aF115.25606054785041
aF2092.374457532548
aF2628.6288607986357
aF0.0
aF1179.1989308596349
aF541.3138460348758
asS'k__Bacteria.p__Bdellovibrionota'
p113
(lp114
F0.0
aF0.0
aF308.8206909862963
aF192.41129839144148
aF0.0
aF0.0
aF4991.169469400293
aF8449.83868489782
aF2656.809518308883
aF4410.185611290069
aF4687.875631060178
aF4294.643199509185
aF729.1706643128523
aF1096.319498825372
aF972.1196095967642
aF0.0
aF0.0
aF765.9313725490197
aF13018.340544472947
aF4327.1808225472905
aF5972.206270816575
aF4977.029096477799
aF19083.384426732056
aF6776.15711496497
aF5551.089161976956
aF6672.546688652834
aF6478.232368025296
aF5096.175952180242
aF7557.73804956648
aF0.0
aF268.0349211211517
aF0.0
aF267.9836147161288
aF612.5339764940087
aF153.13349412350217
aF655.6618327676638
aF0.0
aF481.57958102576436
aF0.0
aF0.0
aF153.90534821085032
aF2145.4294690062043
aF2109.6237198419703
aF1686.6638555602397
aF6778.355478528786
aF6399.448191293685
aF4680.606176865524
aF0.0
aF728.360039868127
aF2270.682490038988
aF0.0
aF231.66917641607765
aF0.0
aF345.7416157658176
aF0.0
aF0.0
aF114.85012059262667
aF0.0
aF306.0376863550915
aF3887.420307883684
aF6024.327539234877
aF6127.920337035618
aF8973.080757726828
aF3078.106964217008
aF4840.754543009718
aF1549.9070055796653
aF3401.7549963276465
aF887.1683200258095
aF235.839786171927
aF77.3305494335537
asS'k__Bacteria.p__Proteobacteria.c__Alphaproteobacteria.o__Rhodobacterales'
p115
(lp116
F549980.5371739977
aF303930.30794165336
aF453078.55626327
aF419110.29015623796
aF468349.9147806097
aF396656.9484936834
aF55018.04499731245
aF102588.72330619126
aF71348.8121366139
aF85826.04693971454
aF79132.94334481923
aF69059.39644925036
aF25866.36988141381
aF41973.37509788567
aF28541.431737761
aF315777.37771478936
aF694834.9328979332
aF443512.56127451
aF82704.75169429876
aF76012.86666156082
aF55625.74174036206
aF72626.33996937219
aF95110.36174126294
aF90731.59526817499
aF222847.51732322652
aF103654.56149096898
aF106505.22500289202
aF189669.7064909188
aF105846.69684646657
aF142195.28203544285
aF716036.1464236485
aF902613.8279932542
aF793461.1998009267
aF507599.24964587897
aF791585.3144979137
aF620680.3455723539
aF876965.1664611592
aF545228.3489846694
aF720488.0489588542
aF722017.1723843196
aF476798.76875721454
aF71105.66240134844
aF50209.04453223888
aF79119.868133553
aF43597.15000962833
aF75068.97608828939
aF72971.41760982154
aF47330.677290836655
aF684543.4332592181
aF249732.23083843876
aF179876.05373570952
aF235066.99100351342
aF395035.07825148397
aF731474.0117552148
aF937839.5157535305
aF943696.5443178763
aF955208.4529688759
aF929409.9593339982
aF701656.9754732664
aF81052.71341937478
aF81999.92325697404
aF122290.31022596706
aF120254.62075312533
aF49557.52212389382
aF115640.24741634325
aF745079.0452572847
aF590513.7423170583
aF161746.91507379647
aF488817.2634723474
aF491010.3236283493
asS'k__Bacteria.p__Proteobacteria'
p117
(lp118
F857337.48540288
aF818314.4246353324
aF846979.3476162907
aF971292.2342799966
aF851837.1715089782
aF857065.1117589896
aF472740.5359748142
aF454908.5881087718
aF726117.5926995495
aF545482.4359564348
aF449435.05088548735
aF451512.71137697087
aF610085.5816095483
aF615231.01018011
aF622856.476260839
aF971999.8467843876
aF948986.4999402652
aF850834.8651960782
aF440249.64582455944
aF451635.13824002416
aF302630.067761571
aF402411.9448698324
aF390557.93991416297
aF390069.2929060914
aF617204.5480647763
aF490470.5295854585
aF537230.555662669
aF558510.230669017
aF498465.43389856553
aF555422.5705571218
aF980433.450758156
aF986202.6674842864
aF994831.7445733319
aF984380.3835994028
aF989663.4891466636
aF752892.6257327982
aF942624.8458692975
aF832651.095593547
aF953196.5667218349
aF856598.9354675782
aF588841.8622547131
aF276109.11041299516
aF202178.66595067302
aF235519.60746732054
aF441478.9139225884
aF233139.17841814808
aF264185.68962209875
aF352629.4820717132
aF946139.6917886978
aF677563.0864144636
aF931868.0472689476
aF959728.1748330048
aF695281.7824377462
aF979716.4918750718
aF975283.2531429455
aF991101.9061864763
aF989050.9551701697
aF981431.7501726383
aF857692.4758448836
aF358575.64919919096
aF331644.9867618288
aF413902.71926464984
aF526344.0447887114
aF747941.5159676804
aF395366.7063659763
aF934942.6534407935
aF940391.9749507126
aF371521.89692717243
aF932589.1277858571
aF965278.5833043338
asS'k__Bacteria.p__Bacteroidota.c__Bacteroidia.o__Flavobacteriales.f__Flavobacteriaceae.g__Flavobacterium'
p119
(lp120
F544.9591280653948
aF2147.487844408429
aF1273.8853503184723
aF538.7516354960361
aF277.4584803202664
aF1127.308066083577
aF17315.51869768871
aF11637.732370563817
aF12744.984790728118
aF13844.147875440996
aF15345.780911932035
aF15683.11668392193
aF575.6610507733044
aF2075.176194205168
aF1011.004393980635
aF0.0
aF0.0
aF344.6691176470589
aF10261.515487996327
aF7160.909856781799
aF6316.756632594454
aF5359.877488514552
aF8736.971183323109
aF10757.627962176024
aF918.8009647410132
aF1648.9626874257
aF1002.5835807658194
aF1494.3673844739055
aF997.4679659326316
aF1853.2103007605917
aF38.29070301730739
aF153.30369461904033
aF0.0
aF114.85012059262664
aF0.0
aF1658.4387534711493
aF231.1960542540074
aF1043.4224255558229
aF577.3449828720985
aF1864.8743152414622
aF769.5267410542517
aF19155.620258983967
aF9052.203597867363
aF19626.633955610057
aF3119.58405545927
aF18470.263641937465
aF11854.977939765953
aF796.812749003984
aF38.33473894042774
aF3170.3868728846246
aF2040.109319065398
aF0.0
aF385.4752910338446
aF345.7416157658176
aF698.4324072636967
aF0.0
aF0.0
aF345.27737282283425
aF1224.150745420366
aF1632.7165293111473
aF2609.2628832354876
aF3408.655687476062
aF1073.7019710100476
aF846.4794151596772
aF1498.3287871220555
aF464.9721016738995
aF347.90676098805477
aF3427.695781917901
aF550.292834401163
aF77.3305494335537
asS'k__Bacteria.p__Desulfobacterota.c__Desulfovibrionia'
p121
(lp122
F6773.063448812764
aF18638.573743922214
aF3512.8353599691204
aF1693.219425844685
aF7927.385152007612
aF9601.554907677362
aF0.0
aF76.81671531725291
aF0.0
aF0.0
aF0.0
aF0.0
aF115.13221015466088
aF0.0
aF0.0
aF0.0
aF0.0
aF0.0
aF38.28923689550868
aF191.46817798881816
aF0.0
aF459.41807044410444
aF1264.561618638871
aF1799.31855595115
aF0.0
aF0.0
aF0.0
aF0.0
aF0.0
aF3436.1607659935976
aF0.0
aF344.9333128928407
aF0.0
aF76.56674706175109
aF0.0
aF0.0
aF115.5980271270037
aF0.0
aF115.46899657441969
aF0.0
aF0.0
aF56585.70224503863
aF9780.9827010855
aF48031.58661402228
aF1502.0219526285377
aF115381.66768853464
aF24055.246499136738
aF1035.8565737051792
aF115.00421682128322
aF0.0
aF0.0
aF0.0
aF3430.730090201217
aF153.66294034036335
aF0.0
aF0.0
aF38.28337353087556
aF76.72830507174095
aF131.15900843789638
aF272.1194215518578
aF76.74302597751434
aF114.89850631941783
aF76.69299792928912
aF0.0
aF0.0
aF0.0
aF0.0
aF3064.7632873618877
aF0.0
aF0.0
asS'k__Bacteria.p__Actinobacteriota.c__Actinobacteria.o__Corynebacteriales'
p123
(lp124
F7356.948228882829
aF8752.025931928692
aF617.6413819725926
aF1808.6662048795497
aF42411.51056324073
aF24567.54130223519
aF691.0850034554252
aF230.45014595175874
aF231.02691463555502
aF268.44608068722147
aF4687.875631060178
aF498.4853713716018
aF7560.348466822732
aF63429.9138606108
aF2683.0501224870695
aF5247.634733979394
aF14177.053880769387
aF459.55882352941177
aF76.57847379101736
aF76.58727119552726
aF0.0
aF0.0
aF0.0
aF0.0
aF2641.552773630413
aF421.8276642251791
aF4665.869741256313
aF1072.8791478274193
aF422.00567789457494
aF6563.453148527096
aF306.32562413845915
aF1188.1036332975625
aF267.9836147161288
aF2986.103135408293
aF306.26698824700435
aF135799.13606911432
aF4045.93094944513
aF12962.517055943492
aF1270.1589623186167
aF7032.130230389682
aF5078.876490958061
aF0.0
aF153.42717962487058
aF0.0
aF308.10706720585387
aF153.28019619865114
aF191.82812200268535
aF13545.81673306773
aF843.3642566894102
aF107150.50769033034
aF4850.0712113630225
aF1196.957411483068
aF2968.159740960603
aF1229.3035227229068
aF5859.071860934345
aF498.6000843784756
aF803.9508441483866
aF537.0981355021866
aF6907.707777729211
aF0.0
aF0.0
aF38.29950210647261
aF0.0
aF0.0
aF0.0
aF4533.477991320521
aF1468.9396575051205
aF10887.97483668039
aF1572.26524114618
aF3170.552526775701
asS'k__Bacteria.p__Proteobacteria.c__Alphaproteobacteria.o__Rhodobacterales.f__Rhodobacteraceae'
p125
(lp126
F549980.5371739977
aF303930.30794165336
aF453078.55626327
aF419110.29015623796
aF468349.9147806097
aF396656.9484936834
aF55018.04499731245
aF102588.72330619126
aF71348.8121366139
aF85826.04693971454
aF79132.94334481923
aF69059.39644925036
aF25866.36988141381
aF41973.37509788567
aF28541.431737761
aF315777.37771478936
aF694834.9328979332
aF443512.56127451
aF82704.75169429876
aF76012.86666156082
aF55625.74174036206
aF72626.33996937219
aF95110.36174126294
aF90731.59526817499
aF222847.51732322652
aF103654.56149096898
aF106505.22500289202
aF189669.7064909188
aF105846.69684646657
aF142195.28203544285
aF716036.1464236485
aF902613.8279932542
aF793461.1998009267
aF507599.24964587897
aF791585.3144979137
aF620680.3455723539
aF876965.1664611592
aF545228.3489846694
aF720488.0489588542
aF722017.1723843196
aF476798.76875721454
aF71105.66240134844
aF50209.04453223888
aF79119.868133553
aF43597.15000962833
aF75068.97608828939
aF72971.41760982154
aF47330.677290836655
aF684543.4332592181
aF249732.23083843876
aF179876.05373570952
aF235066.99100351342
aF395035.07825148397
aF731474.0117552148
aF937839.5157535305
aF943696.5443178763
aF955208.4529688759
aF929409.9593339982
aF701656.9754732664
aF81052.71341937478
aF81999.92325697404
aF122290.31022596706
aF120254.62075312533
aF49557.52212389382
aF115640.24741634325
aF745079.0452572847
aF590513.7423170583
aF161746.91507379647
aF488817.2634723474
aF491010.3236283493
asS'k__Bacteria.p__Proteobacteria.c__Alphaproteobacteria.o__Rhizobiales.f__Rhizobiaceae.g__Allorhizobium_Neorhizobium_Pararhizobium_Rhizobium'
p127
(lp128
F0.0
aF4173.419773095627
aF501.83362285273154
aF0.0
aF0.0
aF1166.1807580174934
aF0.0
aF192.0417882931323
aF0.0
aF0.0
aF0.0
aF0.0
aF498.90624400353056
aF0.0
aF272.19349068709397
aF0.0
aF0.0
aF0.0
aF76.57847379101736
aF306.34908478210906
aF0.0
aF76.56967840735075
aF0.0
aF0.0
aF1493.0515677041465
aF2070.7903516508795
aF3123.433463155053
aF2528.929419878917
aF1688.0227115782998
aF1621.5590131655179
aF76.58140603461479
aF114.97777096428024
aF229.70024118525325
aF382.8337353087554
aF0.0
aF1002.7769207034855
aF809.186189889026
aF1645.3969018380283
aF192.44832762403283
aF0.0
aF269.33435936898803
aF229.86744310780756
aF0.0
aF996.6650055583234
aF5661.467359907565
aF421.5205395462906
aF5179.359294072505
aF1235.0597609561753
aF0.0
aF7883.124116361769
aF10046.576080680547
aF3745.3183520599223
aF231.28517462030678
aF153.66294034036335
aF38.80180040353871
aF345.18467380048315
aF421.11710883963116
aF0.0
aF568.3557032308843
aF1554.9681231534732
aF7597.55957177392
aF2068.1731137495212
aF17064.19203926683
aF2424.0092343208935
aF768.3737369856694
aF581.2151270923744
aF463.8756813174064
aF524.2358254697966
aF0.0
aF0.0
asS'k__Bacteria.p__Proteobacteria.c__Gammaproteobacteria.o__Alteromonadales.f__Shewanellaceae.g__Shewanella'
p129
(lp130
F1751.6543402101975
aF3038.897893030796
aF5790.387955993056
aF37597.16770568766
aF1387.2924016013324
aF738.5811467444124
aF10750.211164862169
aF16016.285143647232
aF342227.86954680225
aF94224.57432121475
aF21556.214440259624
aF27991.87085394379
aF997.8124880070609
aF509.00548159749417
aF427.73262822257624
aF111311.14260543151
aF18159.372386603485
aF10531.55637254902
aF59271.738714247425
aF155587.04143371363
aF53864.70655794179
aF140543.64471669227
aF66178.72470876758
aF89889.36105049575
aF16729.834232992616
aF18675.461134332927
aF24948.906798287888
aF28546.24875469383
aF22788.306606307047
aF9690.745531060595
aF650.9419512942256
aF114.97777096428024
aF612.5339764940087
aF4440.871329581563
aF30129.01496879905
aF694.2301758716438
aF4045.93094944513
aF0.0
aF32177.36037873829
aF271.9608376393799
aF577.1450557906887
aF10535.59114244118
aF5178.167312339381
aF9583.317361137724
aF2772.9636048526854
aF8315.450643776823
aF10397.084212545546
aF2151.394422310757
aF0.0
aF4541.364980077976
aF46807.03645251933
aF69925.47974825275
aF2698.3270372369125
aF15519.956974376697
aF349.2162036318484
aF191.76926322249062
aF1225.0679529880179
aF575.4622880380571
aF786.9540506273783
aF15782.926450007753
aF33575.073865162514
aF41861.355802374565
aF60894.24035585557
aF69295.88303193537
aF53017.787852011184
aF1239.925604463732
aF425.2193745409558
aF1774.336640051619
aF16233.638614834306
aF7849.0507675057
asS'k__Bacteria.p__Firmicutes'
p131
(lp132
F27286.882055274404
aF22042.139384116712
aF40957.34414205754
aF3040.098514584776
aF12961.274723532446
aF39611.27308066086
aF883.053059970821
aF691.3504378552763
aF1386.1614878133303
aF2991.2563276576116
aF11339.04960333359
aF2415.7367997239166
aF1343.2091184710437
aF2114.3304620203603
aF3732.939300851576
aF2872.79273757996
aF6132.7704989845115
aF2259.497549019608
aF15622.008653367538
aF54032.31982844449
aF24348.2255656368
aF71630.93415007662
aF30426.118945432234
aF44025.879560506866
aF803.9508441483865
aF191.7398473750814
aF1812.3626267689815
aF344.85401180167054
aF1918.2076267935226
aF51117.717462646324
aF3407.8725685403583
aF2989.4220450712874
aF114.85012059262662
aF1110.217832395391
aF650.8173500248843
aF5862.388151804994
aF8978.113440197287
aF14808.572116542255
aF9314.499057003186
aF9596.332413846694
aF13928.434013081956
aF51988.35338288248
aF13616.662191707264
aF39329.93445010922
aF18640.47756595416
aF70547.21030042917
aF21177.824669096466
aF134223.1075697211
aF1265.0463850341157
aF28404.952658412247
aF27291.273721082405
aF5907.563998609981
aF65800.63217947725
aF5301.371441742536
aF3065.3422318795583
aF421.8923790894794
aF2029.0187971364046
aF1304.3811862195962
aF24876.491933721016
aF1282.8487016016154
aF35186.677410690325
aF9498.276522405207
aF1533.8599585857826
aF577.145055790689
aF200699.22010065685
aF2131.1221326720392
aF4368.16266573891
aF60246.79409629817
aF2908.690696120433
aF3711.8663728105776
asS'k__Bacteria.p__Firmicutes.c__Negativicutes.o__Veillonellales_Selenomonadales.f__Veillonellaceae'
p133
(lp134
F3464.3830284157243
aF526.7423014586712
aF1273.8853503184723
aF0.0
aF951.2862182409135
aF1010.6899902818277
aF0.0
aF0.0
aF0.0
aF575.2416014726175
aF0.0
aF191.72514283523145
aF0.0
aF0.0
aF0.0
aF0.0
aF39.82318505834098
aF612.7450980392157
aF0.0
aF0.0
aF0.0
aF0.0
aF114.96014714898828
aF0.0
aF0.0
aF0.0
aF308.4872556202521
aF0.0
aF0.0
aF12586.386625999019
aF229.74421810384433
aF0.0
aF0.0
aF0.0
aF0.0
aF809.9352051835846
aF3467.940813810111
aF882.8958985472347
aF0.0
aF0.0
aF0.0
aF38.31124051796793
aF0.0
aF0.0
aF0.0
aF0.0
aF0.0
aF36892.43027888446
aF0.0
aF0.0
aF0.0
aF0.0
aF1117.8783439981494
aF0.0
aF0.0
aF0.0
aF459.40048237050667
aF0.0
aF131.15900843789638
aF0.0
aF0.0
aF268.09651474530824
aF0.0
aF0.0
aF0.0
aF0.0
aF0.0
aF20485.523026050516
aF39.3066310286545
aF0.0
asS'k__Bacteria.p__Proteobacteria.c__Gammaproteobacteria.o__Burkholderiales'
p135
(lp136
F104865.70650058381
aF170502.43111831445
aF106079.90735379278
aF21473.100900484857
aF117919.85413611325
aF102546.16132167158
aF180680.33479229055
aF95559.99385466265
aF27145.662469677714
aF123868.69151710364
aF80775.7031813446
aF104605.2379309023
aF413363.01185861765
aF391738.4494909946
aF445075.24205778254
aF1378.9405140383808
aF6252.240054159534
aF193435.96813725494
aF30631.389516406944
aF10415.868882591702
aF17763.485318326213
aF24655.43644716694
aF43225.01532801959
aF24233.37544504421
aF68259.25500555108
aF82026.3067070598
aF87995.98966567693
aF71614.68311748025
aF84362.77142637914
aF28068.414346936457
aF3484.4539745749726
aF16633.450866165873
aF880.5175912101374
aF11714.712300447916
aF4249.454461927186
aF15774.452329527907
aF3776.202219482122
aF46432.297937234114
aF22785.88199068548
aF37686.00178717122
aF13928.434013081953
aF20726.381120220634
aF11238.540907521763
aF11653.313911143472
aF10013.479684190253
aF11304.414469650517
aF10857.471705351987
aF44462.151394422304
aF3795.1391551023476
aF40700.91255730262
aF5388.968012625581
aF8957.874821421667
aF29219.027060365424
aF4533.056740040719
aF5548.657457706035
aF2416.2927166033824
aF2756.4028942230407
aF10319.957032149157
aF32002.79805884671
aF17571.139791634243
aF21372.932734737737
aF25698.96591344312
aF29296.725208988446
aF13197.38360908042
aF14944.86918437127
aF2944.823310601364
aF3826.9743708686033
aF16210.984756835247
aF2554.931016862543
aF4330.510768279008
asS'k__Bacteria'
p137
(lp138
F994745.0369793694
aF988087.5202593193
aF996487.1646400308
aF997998.9224967291
aF992270.7994767926
aF999261.4188532557
aF999270.5213852415
aF998924.5659855584
aF998690.8474837319
aF999539.806718822
aF991946.470069717
aF999156.4093715249
aF996699.5433088997
aF995693.0305403289
aF989539.9930007389
aF999808.4804841614
aF991517.6615825733
aF999731.9240196078
aF999234.2152620899
aF1000000.0
aF1000000.0
aF999961.7151607963
aF998620.4782342121
aF999923.4332529383
aF999923.4332529382
aF999846.6081221
aF998071.9546523733
aF999425.2433136639
aF1000000.0
aF989691.5177020192
aF999923.4185939654
aF999961.6740763453
aF1000000.0
aF1000000.0
aF999923.4332529383
aF999228.6331379204
aF998805.487053021
aF984148.005457902
aF999230.2066895039
aF990792.1830684952
aF998845.7098884187
aF999846.7550379281
aF999808.216025469
aF999540.0007666654
aF996418.2553437321
aF999731.7596566523
aF999654.7093803952
aF972031.8725099602
aF996013.1871501956
aF947645.7735315538
aF1000000.0
aF997374.4160006177
aF998573.7414231747
aF999577.426914064
aF999573.180195561
aF999539.7537682661
aF999923.4332529382
aF998542.162203637
aF996895.9034669698
aF1000000.0
aF999424.4273051687
aF999808.5024894677
aF999194.7235217424
aF999807.6183147365
aF999462.1383841101
aF995970.241785493
aF994704.0859716263
aF979474.1511412212
aF990134.0356118077
aF997216.100220392
asS'k__Bacteria.p__Bacteroidota.c__Bacteroidia.o__Flavobacteriales.f__Flavobacteriaceae.g__Tenacibaculum'
p139
(lp140
F0.0
aF121.55591572123183
aF0.0
aF0.0
aF0.0
aF0.0
aF1996.4677877601173
aF9832.539560608373
aF462.05382927111003
aF690.2899217671411
aF1041.7501402355952
aF306.76022853637033
aF805.9254710826262
aF1174.6280344557556
aF1399.8522378193404
aF344.73512850959514
aF79.64637011668196
aF612.7450980392157
aF80752.0006126278
aF92057.89997702379
aF251100.6469890123
aF107963.24655436457
aF110285.10116492942
aF71896.17549098424
aF97699.1692507944
aF134217.89316255698
aF119847.29880846795
aF108705.64794237101
aF120693.62387784843
aF4285.548820508868
aF38.29070301730739
aF0.0
aF0.0
aF0.0
aF0.0
aF0.0
aF0.0
aF120.39489525644109
aF0.0
aF194.25774117098567
aF0.0
aF101678.0323346869
aF308120.1334816463
aF163299.7278337868
aF174388.6000385133
aF73651.13427345187
aF216727.4122386339
aF0.0
aF0.0
aF0.0
aF1154.7788598483387
aF193.05764701339805
aF616.7604656541514
aF192.07867542545418
aF271.6126028247709
aF38.353852644498126
aF191.41686765437777
aF460.3698304304457
aF1180.4310759410675
aF272585.9119888039
aF154176.73918882632
aF115702.79586365377
aF122056.90620446364
aF14197.768372450946
aF22359.67574628298
aF0.0
aF0.0
aF0.0
aF157.226524114618
aF927.9665932026443
asS'k__Bacteria.p__Proteobacteria.c__Gammaproteobacteria.o__Burkholderiales.f__Rhodocyclaceae.g__Denitromonas'
p141
(lp142
F4359.673024523158
aF16936.790923824967
aF7952.1327928971305
aF923.574232278919
aF2933.1325062428164
aF7308.066083576292
aF806.2658373646627
aF1766.7844522968173
aF1578.6839166762925
aF2224.267525694121
aF1041.7501402355952
aF1457.1110855477589
aF1726.9831523199132
aF3680.5011746280347
aF1983.1240035773992
aF0.0
aF79.64637011668196
aF344.66911764705884
aF4824.443848834093
aF5935.513517653363
aF5857.356150223947
aF3062.78713629403
aF3295.5242182709976
aF7350.407717928102
aF497.68385590138206
aF766.9593895003255
aF462.7308834303781
aF804.6593608705646
aF498.7339829663158
aF0.0
aF536.0698422423034
aF498.2370075118811
aF0.0
aF1071.9344588645151
aF76.56674706175109
aF6286.639925948775
aF770.6535141800247
aF3290.7938036760565
aF1231.6692967938102
aF4001.7094681223048
aF1000.3847633705273
aF3754.5015707608577
aF2876.7596179663233
aF3488.3275194541316
aF1771.6156364336598
aF4253.525444512569
aF6637.253021292913
aF9721.115537848606
aF383.3473894042774
aF18979.478171457955
aF0.0
aF0.0
aF77.09505820676893
aF537.8202911912716
aF737.2342076672353
aF345.1846738004831
aF38.28337353087556
aF1496.2019488989483
aF2142.263804485641
aF6491.991914165751
aF10360.308506964437
aF13558.023745691306
aF5176.777360227016
aF2308.580223162756
aF10373.045449306537
aF658.7104773713577
aF1894.1590320460762
aF5887.5715783530995
aF0.0
aF773.3054943355369
asS'k__Bacteria.p__Firmicutes.c__Negativicutes'
p143
(lp144
F9653.561697158422
aF769.854132901135
aF5288.554333140326
aF0.0
aF951.2862182409135
aF1010.6899902818277
aF0.0
aF0.0
aF0.0
aF575.2416014726175
aF0.0
aF536.830399938648
aF0.0
aF0.0
aF0.0
aF0.0
aF39.82318505834098
aF651.0416666666667
aF0.0
aF0.0
aF0.0
aF0.0
aF114.96014714898828
aF0.0
aF0.0
aF0.0
aF424.1699764778466
aF0.0
aF0.0
aF14748.46531021971
aF727.5233573288405
aF191.6296182738004
aF0.0
aF0.0
aF76.56674706175109
aF809.9352051835846
aF4700.98643649815
aF882.8958985472347
aF962.2416381201641
aF0.0
aF0.0
aF38.31124051796793
aF0.0
aF0.0
aF0.0
aF0.0
aF0.0
aF70916.33466135456
aF0.0
aF0.0
aF0.0
aF347.50376462411646
aF24940.251329889743
aF115.2472052552725
aF0.0
aF0.0
aF842.2342176792621
aF0.0
aF786.9540506273783
aF0.0
aF0.0
aF268.09651474530824
aF0.0
aF0.0
aF0.0
aF0.0
aF115.9689203293516
aF29639.48705540773
aF196.5331551432725
aF0.0
asS'k__Bacteria.p__Proteobacteria.c__Alphaproteobacteria.o__Rhizobiales.f__Rhizobiaceae.g__Hoeflea'
p145
(lp146
F544.9591280653948
aF0.0
aF0.0
aF0.0
aF198.18462880019032
aF0.0
aF3340.244183367888
aF3879.244123521272
aF4235.493434985175
aF4640.2822518791145
aF5288.885327349945
aF4256.298170942137
aF652.4158575430783
aF5873.14017227878
aF544.3869813741879
aF0.0
aF716.8173310501376
aF880.8210784313726
aF229.73542137305205
aF0.0
aF344.55036177787923
aF306.278713629403
aF268.2403433476393
aF574.2506029631329
aF23123.157612648833
aF9932.124094029215
aF7018.085065360735
aF1685.9529465859446
aF1035.8321184685024
aF424.6940272576356
aF382.9070301730739
aF498.23700751188096
aF267.9836147161288
aF306.26698824700435
aF0.0
aF154.27337241592087
aF770.6535141800247
aF1163.817320812264
aF577.3449828720985
aF0.0
aF115.42901115813775
aF114.93372155390378
aF460.2815388746117
aF383.332694445509
aF577.700751010976
aF804.7210300429185
aF959.1406100134268
aF1274.9003984063745
aF43778.271869968485
aF15423.503705925199
aF500.40417260094677
aF0.0
aF2351.399275306452
aF0.0
aF426.8198044389257
aF0.0
aF0.0
aF0.0
aF0.0
aF855.2324677344103
aF997.6593377076864
aF1072.386058981233
aF766.9299792928913
aF384.76337052712597
aF691.5363632871024
aF35221.636701797885
aF43720.282964165555
aF5645.6165819824255
aF1572.26524114618
aF154.6610988671074
asS'k__Bacteria.p__Bacteroidota.c__Bacteroidia.o__Bacteroidales.f__Bacteroidaceae.g__Bacteroides'
p147
(lp148
F21097.703386531706
aF8184.764991896276
aF30496.043234896766
aF384.8225967828829
aF2021.4832137619412
aF0.0
aF191.9680565153959
aF0.0
aF115.51345731777751
aF0.0
aF0.0
aF0.0
aF153.50961353954784
aF665.6225528582617
aF0.0
aF0.0
aF0.0
aF0.0
aF0.0
aF0.0
aF0.0
aF0.0
aF76.64009809932553
aF0.0
aF191.41686765437774
aF0.0
aF1079.7053946708822
aF0.0
aF76.7283050717409
aF53048.14485927194
aF2220.860775003829
aF0.0
aF0.0
aF0.0
aF114.85012059262662
aF3201.1724776303577
aF7937.7311960542565
aF5578.296813548438
aF885.2623070705512
aF2059.132056412448
aF0.0
aF153.24496207187173
aF0.0
aF0.0
aF192.5669170036587
aF0.0
aF0.0
aF105697.21115537848
aF345.0126504638497
aF0.0
aF384.9262866161129
aF0.0
aF22319.019350859602
aF0.0
aF1280.4594133167773
aF191.76926322249062
aF2335.2857853834093
aF76.72830507174095
aF393.4770253136892
aF0.0
aF0.0
aF459.59402527767134
aF0.0
aF0.0
aF115.25606054785041
aF116.24302541847487
aF347.90676098805477
aF67626.42148560373
aF0.0
aF38.66527471677685
asS'k__Bacteria.p__Firmicutes.c__Negativicutes.o__Veillonellales_Selenomonadales'
p149
(lp150
F5488.516932658619
aF769.854132901135
aF1466.8982821849074
aF0.0
aF951.2862182409135
aF1010.6899902818277
aF0.0
aF0.0
aF0.0
aF575.2416014726175
aF0.0
aF536.830399938648
aF0.0
aF0.0
aF0.0
aF0.0
aF39.82318505834098
aF612.7450980392157
aF0.0
aF0.0
aF0.0
aF0.0
aF114.96014714898828
aF0.0
aF0.0
aF0.0
aF308.4872556202521
aF0.0
aF0.0
aF13628.817420176852
aF229.74421810384433
aF191.6296182738004
aF0.0
aF0.0
aF76.56674706175109
aF809.9352051835846
aF3506.4734895191123
aF882.8958985472347
aF461.87598629767876
aF0.0
aF0.0
aF38.31124051796793
aF0.0
aF0.0
aF0.0
aF0.0
aF0.0
aF50796.81274900398
aF0.0
aF0.0
aF0.0
aF0.0
aF24092.205689615286
aF0.0
aF0.0
aF0.0
aF650.8173500248845
aF0.0
aF131.15900843789638
aF0.0
aF0.0
aF268.09651474530824
aF0.0
aF0.0
aF0.0
aF0.0
aF0.0
aF24881.03879345112
aF196.5331551432725
aF0.0
asS'k__Bacteria.p__Proteobacteria.c__Gammaproteobacteria.o__Legionellales.f__Legionellaceae'
p151
(lp152
F39937.7189567925
aF1256.0777957860623
aF3744.4508782088424
aF18509.966905256668
aF2695.3109516825884
aF1049.5626822157442
aF2917.914459034018
aF2803.8101090797313
aF0.0
aF728.6393618653157
aF0.0
aF843.5906284750183
aF14967.187320105915
aF13155.833985904464
aF5016.137185519304
aF30528.210824683043
aF61287.88180478677
aF11757.046568627451
aF497.76007964161283
aF0.0
aF153.1334941235019
aF382.84839203675375
aF574.8007357449416
aF0.0
aF61521.381264117015
aF22356.86620393449
aF41375.85316006631
aF10613.840141006965
aF8670.298473106719
aF55171.614995560114
aF231122.6834124674
aF22075.732025141806
aF185444.66138356112
aF396271.1994180927
aF81926.41935607367
aF38606.9114470842
aF17493.834771886555
aF83233.00425395294
aF43685.77037065545
aF18765.29779711721
aF22508.65717583686
aF1072.714734503102
aF1073.9902573740942
aF191.6663472227545
aF5006.739842095126
aF2184.2427958307785
aF1381.1624784193348
aF63944.22310756972
aF167676.14812543095
aF84400.83972409066
aF2732.976634974402
aF3011.69929340901
aF84303.44614910182
aF91583.11244285655
aF3608.567437529099
aF24508.1118398343
aF8996.592779755754
aF5294.253049950125
aF13902.854894417014
aF3148.8104493857836
aF1956.9471624266157
aF1761.77709689774
aF3029.373418206921
aF1731.435167372067
aF230.51212109570082
aF100317.7309361438
aF208512.11875217422
aF21413.017178804766
aF147439.17298848298
aF281560.530487569
asS'k__Bacteria.p__Proteobacteria.c__Gammaproteobacteria.o__Burkholderiales.f__Burkholderiaceae'
p153
(lp154
F5449.591280653948
aF11588.330632090767
aF6755.452615325233
aF1924.1129839144148
aF7808.474374727499
aF8785.228377065116
aF138984.87291714657
aF74665.84728836984
aF10819.760502098494
aF106803.19067341599
aF30411.090632262185
aF73008.93439165612
aF368768.4691253788
aF354346.12372748635
aF405529.4163393862
aF229.8234190063968
aF238.93911035004587
aF172104.77941176476
aF18914.88302638129
aF421.22999157539994
aF6661.306994372332
aF17993.874425727427
aF34871.24463519311
aF12480.379771065422
aF57731.32728456034
aF69946.69632242969
aF73844.13681409784
aF59813.01249137863
aF69707.66515767659
aF0.0
aF0.0
aF689.8666257856814
aF38.283373530875544
aF344.5503617778799
aF1722.7518088893992
aF1427.028694847268
aF539.4574599260172
aF1203.9489525644108
aF13086.486278434233
aF13364.932592563815
aF0.0
aF12221.285725231768
aF5753.519235932647
aF5443.3242611262285
aF3543.2312728673196
aF4675.045984058859
aF1457.893727220409
aF3824.701195219123
aF0.0
aF3470.28833383317
aF885.3304592170597
aF540.5614116375145
aF16922.36527638578
aF268.9101455956358
aF232.8108024212322
aF0.0
aF267.98361471612884
aF575.4622880380571
aF2666.8998382372265
aF4470.533354066235
aF3568.550707954417
aF3140.559172730754
aF17601.043024771854
aF7425.933051173532
aF0.0
aF929.944203347799
aF657.157215199659
aF2661.504960077429
aF235.839786171927
aF425.31802188454526
asS'k__Bacteria.p__Proteobacteria.c__Alphaproteobacteria.o__Rhizobiales.f__Stappiaceae'
p155
(lp156
F20007.785130400924
aF34683.95461912481
aF17100.94576336616
aF6541.984145309009
aF20492.290617939674
aF32303.206997084566
aF4799.201412884897
aF5914.887079428475
aF8355.473412652573
aF9050.467863169182
aF9255.549322862404
aF5636.719199355804
aF5411.213877269061
aF11707.126076742366
aF6571.528560874127
aF9959.014823610527
aF20190.354824578877
aF3753.063725490196
aF5973.1209556993535
aF4327.18082254729
aF3407.220244247917
aF3292.496171516082
aF4138.565297363579
aF4747.138317828566
aF4823.70506489032
aF5560.455573877361
aF7982.107739174023
aF5594.298413671544
aF18222.972454538463
aF16717.501254777842
aF9649.257160361462
aF4905.7182278092905
aF5627.655909038705
aF20022.20435664791
aF4861.988438421194
aF19438.44492440603
aF4315.659679408139
aF25202.664740348337
aF9391.478388052801
aF17716.30599479389
aF8618.699499807619
aF2298.6744310780755
aF1802.7693605922293
aF1648.3305861156887
aF2888.50375505488
aF2414.1630901287554
aF1572.99060042202
aF48525.89641434263
aF3986.8128498044853
aF60794.31044085516
aF49809.46148812501
aF26680.566817251613
aF10600.570503430727
aF13330.26007452652
aF6984.324072636968
aF7632.416676255127
aF3062.6698824700443
aF12928.719404588348
aF17487.867791719516
aF1943.7101539418418
aF1419.7459805840151
aF4902.336269628494
aF2224.0969399493847
aF4732.589457483649
aF4763.91716931115
aF8601.983880967142
aF9045.575785689425
aF25606.90378256314
aF103258.51971227536
aF74817.3065769632
asS'k__Bacteria.p__Firmicutes.c__Clostridia.o__Peptostreptococcales_Tissierellales'
p157
(lp158
F38.92565200467106
aF0.0
aF1389.6931094383333
aF0.0
aF3210.590986563083
aF6763.848396501462
aF38.393611303079176
aF307.26686126901166
aF0.0
aF0.0
aF1883.1637150412682
aF153.38011426818517
aF0.0
aF195.7713390759593
aF0.0
aF0.0
aF0.0
aF0.0
aF15583.719416472031
aF53802.5580148579
aF24271.658818575048
aF71630.93415007662
aF30311.15879828325
aF43911.02943991424
aF0.0
aF0.0
aF77.12181390506302
aF0.0
aF0.0
aF386.0854793251233
aF0.0
aF0.0
aF0.0
aF38.283373530875544
aF0.0
aF154.27337241592087
aF0.0
aF0.0
aF538.8553173472918
aF0.0
aF0.0
aF51950.04214236452
aF13616.662191707264
aF39214.934641775566
aF18640.47756595416
aF70470.57020232985
aF21177.824669096466
aF5577.689243027889
aF0.0
aF8054.496379760938
aF18283.998614265365
aF965.2882350669903
aF732.4030529643048
aF0.0
aF232.8108024212322
aF0.0
aF114.85012059262667
aF345.2773728228343
aF612.075372710183
aF1127.351889286268
aF35033.1913587353
aF8847.184986595174
aF1457.1669606564933
aF230.8580223162756
aF200699.22010065685
aF348.7290762554247
aF386.5630677645053
aF2742.156625534321
aF0.0
aF386.65274716776844
asS'k__Bacteria.p__Firmicutes.c__Clostridia.o__Oscillospirales'
p159
(lp160
F4087.1934604904613
aF2350.081037277149
aF12738.853503184724
aF461.7871161394595
aF515.2800348804949
aF1088.4353741496604
aF0.0
aF0.0
aF0.0
aF38.349440098174504
aF721.2116355477197
aF0.0
aF422.15143723375655
aF1096.319498825372
aF1244.3131002838581
aF0.0
aF0.0
aF497.8553921568627
aF0.0
aF0.0
aF0.0
aF0.0
aF0.0
aF114.8501205926266
aF0.0
aF191.7398473750814
aF347.04816257278367
aF0.0
aF115.09245760761135
aF10385.699393845818
aF421.19773319038126
aF306.60738923808066
aF0.0
aF38.283373530875544
aF114.85012059262662
aF0.0
aF847.7188655980273
aF0.0
aF2232.4006004387807
aF1592.9134776020824
aF961.9084263178145
aF0.0
aF0.0
aF114.9998083336527
aF0.0
aF38.320049049662785
aF0.0
aF24103.585657370513
aF76.66947788085548
aF0.0
aF0.0
aF424.7268234294757
aF24169.300747822064
aF38.41573508509084
aF1319.2612137203162
aF153.4154105779925
aF306.26698824700446
aF0.0
aF393.4770253136892
aF0.0
aF0.0
aF76.59900421294522
aF76.69299792928912
aF0.0
aF0.0
aF0.0
aF541.1882948703075
aF14476.973949512074
aF353.7596792578905
aF0.0
asS'k__Bacteria.p__Proteobacteria.c__Alphaproteobacteria.o__Sphingomonadales'
p161
(lp162
F22966.13468275592
aF80307.9416531605
aF36633.854468249396
aF11082.890787347029
aF50854.17575012884
aF53799.80563654036
aF3992.9355755202346
aF1574.7426640036847
aF6160.717723614801
aF1188.8326430434095
aF11859.924673451393
aF5214.923885118295
aF8059.254710826262
aF8692.247454972594
aF6415.989423338645
aF1608.7639330447773
aF2907.092509258892
aF1646.7524509803923
aF268.0246582685607
aF459.52362717316356
aF306.2669882470038
aF153.1393568147015
aF536.4806866952787
aF76.56674706175106
aF1646.1850618276485
aF2607.661924301108
aF4357.382485636062
aF1800.9042838531682
aF4296.785084017491
aF24477.819389212822
aF2910.0934293153614
aF6898.666257856814
aF191.4168676543777
aF3445.503617778799
aF803.9508441483864
aF16391.54581919159
aF1888.1011097410606
aF31904.64724295689
aF7543.974442862087
aF18415.63386300944
aF12043.093497499038
aF191.55620258983964
aF268.4975643435235
aF268.3328861118563
aF1386.4818024263425
aF344.88044144696505
aF959.1406100134268
aF51832.66932270917
aF843.3642566894102
aF57452.55130457135
aF3579.8144655298497
aF4671.995057724233
aF8249.171228124274
aF4072.067919019629
aF4578.612447617566
aF882.1386108234568
aF1339.9180735806444
aF3567.8661858359537
aF19280.374240370766
aF894.1066708132471
aF613.9442078201147
aF1914.9751053236305
aF2991.0269192422757
aF461.7160446325512
aF307.3494947942678
aF4184.748915065096
aF6455.603231667239
aF27300.588757157868
aF2043.9448134900338
aF4098.519119978345
asS'k__Bacteria.p__Firmicutes.c__Bacilli'
p163
(lp164
F9147.528221097698
aF14627.228525121562
aF4053.2715691951394
aF2424.382359732163
aF5390.621903365177
aF26627.793974732765
aF844.6594486677418
aF384.0835765862646
aF1116.6300874051826
aF2224.2675256941216
aF6971.712476961291
aF1725.5262855170831
aF921.057681237287
aF822.239624119029
aF1827.584866041917
aF2757.8810280767616
aF6092.947313926171
aF574.4485294117648
aF38.28923689550868
aF229.76181358658178
aF76.56674706175095
aF0.0
aF0.0
aF0.0
aF803.9508441483865
aF0.0
aF462.7308834303781
aF306.53689937926265
aF1803.115169185911
aF13821.860159839414
aF1263.593199571144
aF1724.6665644642037
aF114.85012059262662
aF1033.65108533364
aF344.55036177787986
aF3741.1292810860814
aF1425.7090012330457
aF12761.858897182758
aF2386.3592625380074
aF6565.911651579316
aF12889.572912658718
aF0.0
aF0.0
aF0.0
aF0.0
aF38.320049049662785
aF0.0
aF16454.18326693227
aF1188.3769071532602
aF20350.456278651305
aF2848.4545209592347
aF3320.5915286304466
aF6745.817593092281
aF2266.5283700203595
aF1086.4504112990837
aF115.06155793349437
aF497.68385590138223
aF959.1038133967618
aF22646.788790276776
aF155.49681231534734
aF153.48605195502867
aF153.19800842589044
aF0.0
aF346.2870334744134
aF0.0
aF1627.4023558586484
aF2087.4405659283284
aF5605.290749253979
aF2083.251444518688
aF3325.2136256428093
asS'k__Bacteria.p__Proteobacteria.c__Gammaproteobacteria.o__Gammaproteobacteria_Incertae_Sedis'
p165
(lp166
F544.9591280653948
aF0.0
aF0.0
aF692.6806742091892
aF0.0
aF0.0
aF115.18083390923753
aF0.0
aF0.0
aF0.0
aF0.0
aF76.69005713409258
aF921.0576812372869
aF0.0
aF233.30870630322343
aF306.4312253418624
aF438.05503564175075
aF612.7450980392157
aF2220.775739939503
aF2029.5626866814725
aF1531.334941235019
aF1454.8238897396643
aF1532.8019619865106
aF1569.618314765897
aF8690.32579150875
aF10123.8639414043
aF9794.470365943003
aF8391.447620507315
aF9552.67398143174
aF4633.025751901479
aF1148.7210905192217
aF843.1703204047217
aF191.4168676543777
aF535.9672294322576
aF765.6674706175108
aF694.2301758716438
aF115.5980271270037
aF160.52652700858812
aF808.2829760209378
aF116.55464470259139
aF230.8580223162755
aF114.93372155390378
aF230.14076943730586
aF0.0
aF1540.5353360292693
aF574.8007357449418
aF844.0437368118155
aF0.0
aF306.6779115234219
aF0.0
aF731.3599445706145
aF540.5614116375145
aF4664.25102150952
aF1267.7192578079976
aF0.0
aF767.0770528899625
aF382.83373530875554
aF0.0
aF568.3557032308844
aF1671.5907323899837
aF268.6005909213002
aF1340.4825737265414
aF2914.3339213129866
aF615.6213928434015
aF384.1868684928347
aF0.0
aF579.844601646758
aF4113.234938301481
aF4874.022247553158
aF2242.585933573057
asS'k__Bacteria.p__Proteobacteria.c__Gammaproteobacteria.o__Pseudomonadales.f__Pseudomonadaceae.g__Pseudomonas'
p167
(lp168
F1440.2491241728292
aF648.2982171799031
aF270.21810461300925
aF153.92903871315318
aF1783.6616592017128
aF7152.575315840626
aF2188.435844275513
aF1229.0674450760466
aF1155.134573177775
aF1303.880963337933
aF961.6155140636264
aF1687.1812569500366
aF1112.9446981617218
aF1801.0963194988256
aF505.5021969903175
aF191.51951583866398
aF756.6405161084786
aF689.3382352941178
aF1608.1479496113643
aF38.29363559776363
aF0.0
aF0.0
aF344.8804414469649
aF191.41686765437765
aF4326.021208988937
aF4448.364459101888
aF5398.526973354411
aF4827.956165223387
aF5102.432287270769
aF5019.111231226604
aF0.0
aF843.1703204047217
aF0.0
aF114.85012059262664
aF0.0
aF694.2301758716438
aF231.1960542540074
aF3973.0315434625563
aF384.8966552480656
aF1048.9918023233226
aF692.5740669488266
aF0.0
aF153.42717962487058
aF0.0
aF1039.861351819757
aF306.5603923973023
aF306.9249952042966
aF2589.6414342629478
aF115.00421682128322
aF7197.635062765093
aF1693.6756611108967
aF2857.2531757982915
aF2736.8745663402965
aF192.07867542545418
aF232.8108024212322
aF38.353852644498126
aF114.85012059262667
aF575.4622880380571
aF1136.7114064617688
aF2254.703778572536
aF2340.662292314187
aF1723.4775947912674
aF1840.631950302939
aF2347.0565602154684
aF2228.283837258441
aF232.48605083694974
aF811.7824423054611
aF3588.999112831684
aF1061.2790377736715
aF1275.954065653636
asS'k__Bacteria.p__Bacteroidota.c__Bacteroidia.o__Flavobacteriales.f__Flavobacteriaceae'
p169
(lp170
F1751.6543402101972
aF2269.0437601296608
aF1737.1163867979167
aF1654.7371661663965
aF634.190812160609
aF1127.308066083577
aF143016.20210396993
aF221961.89890920217
aF176851.10315351735
aF234123.33179935525
aF277305.87386809837
aF261398.05974155458
aF4336.646582492227
aF6029.757243539546
aF4393.980635377374
aF7047.918182862834
aF8004.460196726537
aF4901.960784313726
aF263315.0821304133
aF269587.1946082561
aF438459.4770491169
aF241003.0627871364
aF279506.4377682403
aF241070.40312392317
aF169863.32835649478
aF219465.42930551816
aF191416.34211236643
aF182197.8695685492
aF204902.93869408398
aF9459.094243465519
aF191.45351508653695
aF881.4962440594818
aF229.70024118525325
aF382.83373530875554
aF535.9672294322576
aF1658.4387534711493
aF3814.7348951911226
aF1444.7387430772933
aF2232.4006004387807
aF2214.5382493492366
aF2039.245863793767
aF258141.13861006804
aF424379.57884239225
aF332234.4462759228
aF316310.41787020984
aF207196.50521152664
aF358526.76002301904
aF1235.0597609561753
aF2185.0801196043817
aF4327.149650829015
aF3464.336579545016
aF810.8421174562719
aF49572.122426952425
aF729.8989666167259
aF970.0450100884676
aF345.18467380048315
aF497.6838559013821
aF920.7396608608914
aF2929.2178551130196
aF408023.6355154714
aF371896.7038870345
aF327575.64151666046
aF284262.59682491043
aF120969.60369372841
aF236774.367052134
aF619.962802231866
aF7615.292434960755
aF14275.344785869846
aF2201.1713376046523
aF3557.2052739434703
asS'k__Bacteria.p__Proteobacteria.c__Alphaproteobacteria.o__Rhodobacterales.f__Rhodobacteraceae.g__Roseobacter_clade_CHAB_I_5_lineage'
p171
(lp172
F5332.814324639935
aF0.0
aF0.0
aF2039.5597629492797
aF0.0
aF0.0
aF153.5744452123167
aF614.5337225380233
aF500.5583150437026
aF230.096640589047
aF801.3462617196886
aF0.0
aF0.0
aF274.079874706343
aF0.0
aF191.51951583866398
aF0.0
aF612.7450980392157
aF574.3385534326301
aF536.1108983686908
aF459.4004823705057
aF1071.9754977029104
aF268.2403433476393
aF842.2342176792617
aF1186.784579457142
aF268.43578632511395
aF616.9745112405041
aF1226.1475975170506
aF882.3755083250204
aF231.65128759507397
aF9610.966457344153
aF574.8888548214012
aF2832.96964128479
aF8996.592779755752
aF5053.405306075571
aF2622.6473310706547
aF539.4574599260172
aF2287.5030098723805
aF923.7519725953575
aF815.8825129181397
aF346.28703347441325
aF459.7348862156151
aF652.0655134057
aF651.6655805573653
aF385.1338340073173
aF459.8405885959534
aF422.02186840590775
aF0.0
aF345.0126504638497
aF0.0
aF23403.518226259665
aF11892.35105602532
aF770.9505820676892
aF2074.449694594905
aF0.0
aF3490.200590649329
aF497.6838559013821
aF0.0
aF1923.665457089147
aF777.4840615767366
aF575.5726948313575
aF1378.7820758330138
aF805.2764782575358
aF307.81069642170075
aF1152.5606054785042
aF0.0
aF579.844601646758
aF725.864989112026
aF393.06631028654493
aF115.99582415033053
asS'k__Bacteria.p__Bacteroidota.c__Bacteroidia.o__Bacteroidales.f__Prevotellaceae'
p173
(lp174
F33437.13507201243
aF8103.7277147487885
aF5790.3879559930565
aF192.41129839144148
aF1228.7446985611798
aF2604.470359572402
aF0.0
aF0.0
aF0.0
aF383.494400981745
aF0.0
aF460.1403428045555
aF997.8124880070611
aF0.0
aF1049.8891783645056
aF0.0
aF119.46955517502293
aF191.48284313725492
aF0.0
aF0.0
aF0.0
aF0.0
aF421.52053954629037
aF0.0
aF382.8337353087555
aF0.0
aF0.0
aF0.0
aF0.0
aF92158.60391490691
aF536.0698422423034
aF229.95554192856048
aF0.0
aF0.0
aF114.85012059262662
aF0.0
aF13178.175092478416
aF5417.770286539849
aF3425.580231707785
aF4118.264112824895
aF2308.580223162755
aF536.3573672515511
aF0.0
aF0.0
aF0.0
aF0.0
aF0.0
aF166414.34262948198
aF191.6736947021387
aF6940.576667666341
aF0.0
aF810.8421174562719
aF32071.544214015874
aF0.0
aF0.0
aF345.18467380048315
aF3100.95325600092
aF153.4566101434819
aF568.3557032308844
aF0.0
aF38.37151298875717
aF1225.5840674071235
aF0.0
aF38.476337052712594
aF0.0
aF0.0
aF270.59414743515373
aF114686.6682797001
aF825.4392516017444
aF0.0
asS'k__Bacteria.p__Proteobacteria.c__Gammaproteobacteria.o__Burkholderiales.f__Comamonadaceae'
p175
(lp176
F94005.44959128059
aF137803.88978930315
aF88631.53831306705
aF17971.215269760633
aF104482.93630346033
aF83809.52380952386
aF18275.35898026569
aF8334.61361192194
aF12821.993762273303
aF5522.319374137128
aF46998.958249859745
aF16948.50262663446
aF3070.1922707909575
aF2740.7987470634303
aF2216.432709880623
aF651.1663538514576
aF3862.8489506590754
aF2642.463235294118
aF1531.5694758203472
aF2067.8563222792363
aF2335.285785383404
aF1799.3874425727424
aF2299.2029429797662
aF2564.9860265686607
aF2603.2694000995375
aF2991.1416190512705
aF3740.4079743955567
aF2222.3925204996544
aF4872.247372055548
aF12123.084050808871
aF2910.0934293153614
aF13912.310286677908
aF689.1007235557597
aF10145.093985682019
aF2411.852532445159
aF3124.035791422398
aF1772.503082614057
aF38606.62974556545
aF6658.712135791537
aF9790.590155017675
aF9426.702577914584
aF1417.5158991648134
aF1534.2717962487056
aF1801.6636638938924
aF1733.1022530329283
aF1379.5217657878602
aF2148.4749664300757
aF19840.6374501992
aF881.6989956298382
aF12124.5876354912
aF3733.784980176295
aF6563.959998455534
aF3276.539973787679
aF3419.0004225730845
aF4112.9908427751025
aF1956.0464848694048
aF2182.1522912599066
aF8094.83618506867
aF24308.136230490127
aF2371.3263878090465
aF2954.606500134302
aF3485.254691689008
aF2569.215430631186
aF1385.1481338976535
aF2151.4464635598747
aF697.4581525108492
aF966.4076694112633
aF2863.134123719658
aF1768.7983962894527
aF2513.242856590495
asS'k__Bacteria.p__Proteobacteria.c__Gammaproteobacteria.o__Vibrionales'
p177
(lp178
F18917.866874270134
aF25567.260940032425
aF119590.81258444324
aF422419.7644885706
aF6500.455824646243
aF113469.38775510213
aF3916.148352914076
aF3802.4274082040197
aF17827.576912710327
aF12118.423071023139
aF6490.904719929479
aF3144.2923424977957
aF2839.9278504816357
aF2545.0274079874707
aF5793.832873196715
aF491094.3425135023
aF114412.01067261361
aF129940.25735294119
aF79182.14189991193
aF57976.56429501413
aF7273.840970866341
aF7197.54977029097
aF6974.248927038624
aF13628.880976991686
aF13131.197121090308
aF8551.597192928633
aF3547.603439632899
aF48930.952563414794
aF10396.685337220892
aF70923.90255202515
aF1148.7210905192217
aF1954.622106392764
aF1110.2178323953906
aF10834.19470923778
aF68297.53837908195
aF0.0
aF21385.635018495683
aF3692.1101211975265
aF99726.7233747738
aF4739.888884572051
aF7233.551365909965
aF25170.48502030493
aF35978.67362203214
aF19818.300302832813
aF33468.13017523588
aF19389.944819129374
aF24515.633991943185
aF199.203187250996
aF5251.859234838602
aF28362.109592562454
aF560953.0774856614
aF555890.1888103782
aF6861.460180402434
aF104682.87810687251
aF4423.405246003412
aF1534.154105779925
aF6546.45687377972
aF498.7339829663161
aF3497.573558343904
aF16327.165293111468
aF16883.465715053157
aF17349.674454232092
aF127693.84155226637
aF531127.3566756445
aF61585.1550194014
aF2751.0849349039054
aF25590.47508601025
aF0.0
aF52985.33862662627
aF7385.067470904378
asS'k__Bacteria.p__Verrucomicrobiota.c__Verrucomicrobiae.o__Verrucomicrobiales'
p179
(lp180
F0.0
aF0.0
aF540.4362092260185
aF0.0
aF0.0
aF116.61807580174934
aF38.393611303079176
aF0.0
aF0.0
aF115.0483202945235
aF320.53850468787545
aF153.38011426818517
aF268.6418236942087
aF1174.6280344557556
aF2488.6262005677168
aF0.0
aF159.29274023336393
aF344.66911764705884
aF153.15694758203472
aF0.0
aF38.28337353087547
aF191.42419601837688
aF76.64009809932553
aF0.0
aF574.2506029631332
aF651.9154810752768
aF308.4872556202521
aF229.902674534447
aF1381.1094912913363
aF0.0
aF3522.74467759228
aF421.58516020236084
aF497.68385590138206
aF880.5175912101375
aF4019.754220741932
aF77.13668620796044
aF154.13070283600496
aF722.3693715386465
aF0.0
aF388.51548234197134
aF615.6213928434013
aF38.31124051796793
aF0.0
aF38.3332694445509
aF77.02676680146347
aF153.28019619865114
aF38.36562440053707
aF0.0
aF3565.13072145978
aF3555.9744655327545
aF0.0
aF193.05764701339805
aF63873.255724308045
aF0.0
aF0.0
aF38.353852644498126
aF0.0
aF0.0
aF393.4770253136891
aF77.74840615767367
aF575.5726948313575
aF1148.9850631941783
aF0.0
aF0.0
aF115.25606054785041
aF697.4581525108493
aF1584.9085778344718
aF0.0
aF707.519358515781
aF270.6569230174379
asS'k__Bacteria.p__Proteobacteria.c__Gammaproteobacteria.o__Burkholderiales.f__Burkholderiaceae.g__Cupriavidus'
p181
(lp182
F3659.011288439079
aF7374.392220421398
aF5828.990542366343
aF1269.9145693835137
aF5786.991160965557
aF8435.374149659869
aF422.3297243338709
aF345.6752189276381
aF885.6031727696276
aF268.44608068722147
aF5088.548761920024
aF306.76022853637033
aF0.0
aF0.0
aF77.76956876774115
aF114.9117095031984
aF238.93911035004587
aF0.0
aF0.0
aF114.88090679329089
aF0.0
aF497.70290964777985
aF229.92029429797657
aF0.0
aF76.5667470617511
aF38.347969475016285
aF0.0
aF76.63422484481566
aF0.0
aF0.0
aF0.0
aF268.28146558332054
aF38.283373530875544
aF344.5503617778799
aF1684.4684353585237
aF0.0
aF539.4574599260172
aF0.0
aF12855.548285285393
aF8547.34061152337
aF0.0
aF0.0
aF0.0
aF38.3332694445509
aF115.5401502021952
aF0.0
aF76.73124880107414
aF0.0
aF0.0
aF1670.8795681418967
aF0.0
aF154.44611761071843
aF16344.15233983501
aF76.83147017018167
aF232.8108024212322
aF0.0
aF229.70024118525333
aF230.18491521522284
aF1486.468762296159
aF0.0
aF115.11453896627151
aF38.29950210647261
aF0.0
aF0.0
aF0.0
aF0.0
aF0.0
aF1774.336640051619
aF0.0
aF0.0
asS'k__Bacteria.p__Proteobacteria.c__Gammaproteobacteria.o__Pseudomonadales.f__Moraxellaceae'
p183
(lp184
F24562.086414947436
aF42139.384116693705
aF25168.88631538315
aF5618.40991303009
aF63220.89658726072
aF36112.73080660838
aF6027.796974583431
aF1075.434014441541
aF8393.977898425164
aF1188.8326430434095
aF36661.59147367575
aF5866.789370758083
aF1228.0769083163827
aF2310.1018010963194
aF972.1196095967643
aF1187.4209981997167
aF1991.159252917049
aF344.6691176470589
aF268.0246582685607
aF0.0
aF267.9836147161283
aF0.0
aF268.2403433476393
aF229.7002411852532
aF76.5667470617511
aF268.43578632511395
aF3971.773416110746
aF76.63422484481566
aF5601.166270237086
aF39805.412918420225
aF1761.37233879614
aF8546.680975011495
aF344.5503617778799
aF3024.386508939168
aF803.9508441483864
aF7675.100277692064
aF2273.427866831073
aF25162.53310859618
aF3541.0492282822042
aF4623.334239869459
aF17391.304347826088
aF0.0
aF191.78397453108823
aF0.0
aF38.51338340073173
aF153.28019619865114
aF0.0
aF11195.219123505974
aF536.6863451659883
aF6126.558416520287
aF1732.168289772508
aF11042.897409166366
aF30876.570811810947
aF1613.4608735738154
aF1008.8468104920064
aF652.015494956468
aF650.8173500248845
aF2647.1265249750622
aF19149.215231932867
aF0.0
aF230.22907793254302
aF382.9950210647261
aF306.7719917171565
aF423.2397075798385
aF268.9308079449843
aF891.1965282083073
aF1391.627043952219
aF7298.975723848706
aF1139.8922998309804
aF1662.6068128214044
asS'k__Archaea'
p185
(lp186
F5254.963020630593
aF11912.479740680717
aF3512.8353599691204
aF2001.0775032709914
aF7729.200523207422
aF738.5811467444124
aF729.4786147585045
aF1075.434014441541
aF1309.1525162681453
aF460.193281178094
aF8053.5299302828735
aF843.5906284750183
aF3300.456691100279
aF4306.969459671105
aF10460.006999261183
aF191.51951583866398
aF8482.338417426628
aF268.07598039215685
aF765.7847379101735
aF0.0
aF0.0
aF38.284839203675375
aF1379.5217657878593
aF76.56674706175106
aF76.5667470617511
aF153.39187790006514
aF1928.0453476265757
aF574.7566863361175
aF0.0
aF10308.482297980794
aF76.58140603461479
aF38.32592365476008
aF0.0
aF0.0
aF76.56674706175109
aF771.3668620796044
aF1194.5129469790384
aF15851.994542098077
aF769.7933104961314
aF9207.816931504718
aF1154.2901115813775
aF153.24496207187173
aF191.78397453108823
aF459.9992333346108
aF3581.7446562680525
aF268.24034334763945
aF345.2906196048337
aF27968.127490039835
aF3986.8128498044853
aF52354.22646844609
aF0.0
aF2625.5839993822137
aF1426.258576825225
aF422.5730859359992
aF426.8198044389257
aF460.2462317339775
aF76.56674706175112
aF1457.8377963630783
aF3104.0965330302147
aF0.0
aF575.5726948313575
aF191.49751053236304
aF805.2764782575358
aF192.38168526356299
aF537.8616158899686
aF4029.758214507129
aF5295.914028373723
aF20525.848858778954
aF9865.964388192278
aF2783.899779607933
asS'k__Bacteria.p__Bacteroidota.c__Bacteroidia.o__Bacteroidales'
p187
(lp188
F71233.94316854808
aF24675.850891410068
aF41845.20362864315
aF1000.5387516354957
aF6024.812715525786
aF3809.523809523812
aF2073.2550103662757
aF1728.3760946381908
aF6199.222209387394
aF30679.552078539607
aF11379.116916419578
aF6173.549599294453
aF1151.3221015466088
aF1801.0963194988256
aF1905.354434809658
aF0.0
aF119.46955517502293
aF880.8210784313726
aF71907.18688976529
aF83250.36378953813
aF75801.07959113343
aF114548.23889739675
aF85032.18884120166
aF146816.73749090766
aF995.3677118027643
aF0.0
aF1735.2408128639183
aF0.0
aF76.7283050717409
aF170379.52202617688
aF3905.6517077653552
aF728.1925494404416
aF0.0
aF0.0
aF421.11710883963093
aF5013.884603517428
aF25238.902589395795
aF15571.073119833047
aF6004.3878218698255
aF8119.9735809472
aF2308.580223162755
aF133093.24955942054
aF34329.331441064794
aF59071.56821405294
aF11823.608704024642
aF91546.59717964439
aF45962.01803184341
aF376772.9083665338
aF690.0253009276994
aF6940.576667666341
aF962.3157165402822
aF1081.122823275029
aF63834.708195204636
aF883.5619069570893
aF1396.8648145273935
aF536.9539370229738
aF6355.040006125344
aF345.27737282283425
aF1092.9917369824698
aF5714.507852589015
aF18802.041364491015
aF18230.56300268096
aF16335.608558938584
aF16814.159292035405
aF29620.807560797555
aF348.7290762554247
aF2319.3784065870323
aF226147.26994112472
aF825.4392516017444
aF115.99582415033053
asS'k__Bacteria.p__Proteobacteria.c__Alphaproteobacteria'
p189
(lp190
F608446.8664850135
aF472730.95623987063
aF523952.90484462486
aF441122.142692219
aF561536.3272424593
aF506122.4489795921
aF126929.27896797974
aF212321.40113688703
aF286819.9145200416
aF253796.59456971902
aF204984.3737478964
aF188619.19552130057
aF63975.13144260651
aF85277.99530148784
aF54516.4677061865
aF330179.645305857
aF722034.16829278
aF455499.3872549022
aF172339.85526668435
aF147890.02067856304
aF127292.21699016089
aF128637.05972434918
aF162285.4077253217
aF161058.15244439326
aF318211.40078863775
aF189285.57732868017
aF200863.76431573654
aF254348.99225994325
aF192741.5023402131
aF221149.76255743048
aF735487.8235564406
aF919822.1677142417
aF804907.9284866585
aF545499.7894414458
aF800084.223421768
aF675640.234495526
aF889758.0147965478
aF634641.6245284532
aF745352.3728878794
aF774932.9810792959
aF514621.0080800308
aF159911.11792199814
aF107475.73932722182
aF138651.43558094057
aF124205.66146735982
aF146880.74800735732
aF137962.78534433112
aF182988.04780876497
aF762746.3006976908
aF456364.33743198676
aF303745.3327687744
aF297694.89169465966
aF434006.6301750055
aF756328.9923552687
aF952855.8125097
aF958692.9007018753
aF963133.111289767
aF949627.8677204018
aF764350.9815065804
aF150287.6691027831
aF187099.49733317984
aF233167.36882420504
aF216082.52166577213
aF89957.6760292421
aF225440.85443159536
aF819784.5629262244
aF684293.9425567273
aF247318.33212355868
aF606737.156558311
aF578587.1708618486
asS'k__Bacteria.p__Proteobacteria.c__Gammaproteobacteria.o__Alteromonadales.f__Alteromonadaceae'
p191
(lp192
F0.0
aF3808.752025931931
aF193.0129318664352
aF115.44677903486487
aF277.4584803202664
aF544.2176870748302
aF9636.796437072873
aF16554.002150868
aF11974.895075276268
aF15991.71652093877
aF16147.127173651725
aF12538.824341424133
aF3185.324480945618
aF2701.6444792482384
aF2721.9349068709403
aF306.4312253418624
aF517.7014057584328
aF651.0416666666667
aF2335.6434506260293
aF497.81726277092713
aF306.2669882470038
aF1186.8300153139364
aF1417.8418148375224
aF1186.7845794571415
aF4938.555185482946
aF7746.289833953289
aF9293.178575560092
aF6054.1037627404385
aF5140.796439806641
aF1158.2564379753699
aF0.0
aF268.28146558332054
aF0.0
aF76.56674706175109
aF0.0
aF38.56834310398022
aF0.0
aF521.7112127779114
aF115.46899657441969
aF427.3670305761684
aF0.0
aF1149.337215539038
aF1764.4125656860115
aF536.6657722237126
aF11130.36780281147
aF2260.8828939301043
aF9476.309226932655
aF318.7250996015936
aF38.33473894042774
aF514.1167901975067
aF0.0
aF617.7844704428737
aF115.64258731015339
aF0.0
aF116.4054012106161
aF0.0
aF0.0
aF153.4566101434819
aF87.43933895859759
aF8319.079458871083
aF7981.274701661489
aF6970.509383378015
aF13689.700130378105
aF5271.258176221626
aF11640.86211533289
aF154.9907005579665
aF77.31261355290107
aF2500.201629163645
aF471.679572343854
aF502.648571318099
asS'k__Bacteria.p__Actinobacteriota.c__Actinobacteria'
p193
(lp194
F10548.851693265855
aF39667.747163695305
aF7411.6965836711115
aF2578.3113984453157
aF49665.0679773277
aF27871.720116618086
aF1574.1380634262464
aF537.7170072207704
aF1232.14354472296
aF651.9404816689665
aF9095.280070518464
aF3872.8478852716753
aF15773.112791188534
aF66523.10101801096
aF3033.0131819419043
aF5975.408894166318
aF15491.218987694638
aF727.6348039215687
aF76.57847379101736
aF114.88090679329089
aF153.1334941235019
aF38.284839203675375
aF0.0
aF76.56674706175106
aF3560.353738371426
aF1457.222840050619
aF5668.453322022133
aF1417.7331596290899
aF1457.8377963630774
aF50075.28666846849
aF612.6512482769183
aF1609.6887934999233
aF267.9836147161288
aF3177.5200030626706
aF306.26698824700435
aF146212.58870718893
aF5702.836004932185
aF19022.39345051769
aF2925.2145798852994
aF27856.56008391934
aF345671.4120815698
aF306.48992414374345
aF153.42717962487058
aF38.3332694445509
aF847.2944348160983
aF6437.768240343348
aF306.9249952042966
aF22709.163346613543
aF6401.9014030514345
aF113834.02596289791
aF10585.472881943102
aF3976.987528476001
aF7015.650296815973
aF2535.438515615995
aF6053.080862952039
aF690.3693476009662
aF842.2342176792622
aF613.8264405739276
aF16263.717046299138
aF583.1130461825525
aF383.7151298875717
aF651.0915358100344
aF115.03949689393369
aF115.4290111581378
aF268.9308079449843
aF28247.055176689388
aF16351.617766438572
aF15202.8389386241
aF2790.7708030344693
aF5645.13010864942
asS'k__Bacteria.p__Desulfobacterota'
p195
(lp196
F6773.063448812764
aF18638.573743922214
aF3512.8353599691204
aF1808.66620487955
aF7927.385152007612
aF9601.554907677362
aF13821.700069108505
aF15747.42664003685
aF12051.904046821453
aF15761.619880349721
aF21436.012501001675
aF20667.97039763794
aF12511.033503473147
aF14996.084573218483
aF15592.798537932098
aF0.0
aF0.0
aF4327.512254901962
aF3675.766741968833
aF1455.1581527150179
aF1799.3185559511473
aF995.4058192955595
aF3027.2838749233583
aF2986.1031354082916
aF10910.76145629953
aF11504.390842504885
aF12956.464736050588
aF12261.475975170508
aF13389.089235018786
aF3436.1607659935976
aF0.0
aF344.9333128928407
aF0.0
aF76.56674706175109
aF0.0
aF0.0
aF115.5980271270037
aF0.0
aF115.46899657441969
aF854.7340611523368
aF0.0
aF58884.376676116706
aF13731.732576425917
aF53359.91106681486
aF4737.146158290004
aF119558.55303494791
aF27776.71206598883
aF1035.8565737051792
aF153.33895576171096
aF0.0
aF0.0
aF2200.8571759527376
aF4124.585614062137
aF153.66294034036335
aF38.80180040353871
aF0.0
aF38.28337353087556
aF230.18491521522284
aF218.59834739649398
aF4859.275384854604
aF3453.4361689881453
aF4442.742244350823
aF6902.369813636021
aF3501.3466717968463
aF1229.3979791770712
aF232.48605083694974
aF77.31261355290107
aF25445.600451649356
aF0.0
aF154.6610988671074
asS'k__Bacteria.p__Proteobacteria.c__Gammaproteobacteria.o__Xanthomonadales'
p197
(lp198
F48189.957181782775
aF79173.41977309568
aF41690.79328315001
aF13160.932809974596
aF83633.9133536803
aF69310.00971817301
aF6450.126698917302
aF1997.234598248576
aF9087.058642331831
aF1610.6764841233291
aF30451.157945348165
aF6825.4150849342395
aF345.3966304639827
aF313.23414252153486
aF194.42392191935286
aF0.0
aF876.1100712835015
aF76.59313725490196
aF1837.8833709844164
aF114.88090679329089
aF995.3677118027624
aF574.2725880551305
aF689.7608828939296
aF306.26698824700424
aF6087.056391409213
aF6212.371054952638
aF6401.110554120232
aF7050.348685723042
aF6368.449320954495
aF84166.63449287688
aF2450.604993107673
aF11612.754867392305
aF382.8337353087554
aF6891.007235557598
aF1186.7845794571417
aF0.0
aF1117.447595561036
aF14527.650694277225
aF1847.503945190715
aF2913.8661175647853
aF3001.1542901115813
aF881.1585319132623
aF575.3519235932646
aF1571.6640472265867
aF9397.265549778544
aF1226.2415695892091
aF2378.6687128332983
aF0.0
aF498.3516062255606
aF3427.4452679833776
aF731.3599445706145
aF617.7844704428737
aF1734.6388096523008
aF1997.6182244247236
aF2832.531429458325
aF728.7232002454643
aF1148.5012059262665
aF6214.992710811017
aF11410.833734096983
aF5403.51422795832
aF2992.9780131230596
aF6932.209881271542
aF6672.290819848155
aF3193.535975375146
aF307.3494947942678
aF116.24302541847487
aF0.0
aF362.932494556013
aF275.1464172005815
aF1005.297142636198
asS'k__Bacteria.p__Proteobacteria.c__Gammaproteobacteria.o__Legionellales.f__Legionellaceae.g__Legionella'
p199
(lp200
F5293.888672635264
aF0.0
aF386.0258637328704
aF1154.4677903486488
aF0.0
aF0.0
aF38.393611303079176
aF422.491934244891
aF0.0
aF306.79552078539604
aF0.0
aF0.0
aF11244.57919177188
aF10571.652310101803
aF1944.2392191935287
aF30528.210824683043
aF61287.88180478677
aF5093.443627450981
aF0.0
aF0.0
aF0.0
aF76.56967840735075
aF421.5205395462905
aF0.0
aF55434.324872707795
aF16604.67078268205
aF33123.81907222457
aF2643.8807571461407
aF613.8264405739272
aF55171.614995560114
aF15392.86261295757
aF1877.970259083244
aF9302.859768002756
aF23238.00773324146
aF6814.440488495846
aF12341.86979327367
aF2658.754623921085
aF18139.49755197046
aF11123.513336669097
aF2447.647538754419
aF2577.9145825317432
aF0.0
aF0.0
aF0.0
aF385.1338340073174
aF421.5205395462906
aF38.36562440053707
aF62669.322709163345
aF163574.33105880517
aF82987.01855104753
aF2655.991377651179
aF2895.864705200971
aF84033.61344537813
aF2497.022780530905
aF0.0
aF920.4924634679551
aF344.55036177788
aF153.4566101434819
aF830.673720106677
aF155.49681231534734
aF153.48605195502867
aF229.79701263883567
aF0.0
aF0.0
aF76.83737369856695
aF91831.99008059515
aF188604.12076230216
aF19920.961367852273
aF135254.1173696001
aF275180.7601593008
asS'k__Bacteria.p__Proteobacteria.c__Gammaproteobacteria.o__Burkholderiales.f__Burkholderiaceae.g__Limnobacter'
p201
(lp202
F1362.397820163487
aF3970.8265802269066
aF694.8465547191666
aF577.2338951743244
aF2021.4832137619412
aF349.854227405248
aF138447.36235890345
aF74089.72192349043
aF9934.157329328866
aF106534.74459272876
aF25002.003365654284
aF72663.82913455271
aF368576.5821084544
aF353719.65544244327
aF405451.64677061845
aF0.0
aF0.0
aF171875.00000000003
aF18876.593789485778
aF306.34908478210906
aF6661.306994372332
aF17496.171516079645
aF34641.32434089513
aF12480.379771065422
aF56774.24294628845
aF69103.04099397933
aF72725.87051247443
aF58433.59644417194
aF68825.28964935157
aF0.0
aF0.0
aF0.0
aF0.0
aF0.0
aF38.283373530875544
aF1157.0502931194064
aF0.0
aF1203.9489525644108
aF76.97933104961314
aF1282.1010917285055
aF0.0
aF11953.107041605994
aF5561.735261401558
aF5328.324452792575
aF2849.9903716541485
aF4675.045984058859
aF1304.4312296182604
aF2310.7569721115533
aF0.0
aF771.1751852962599
aF500.40417260094677
aF0.0
aF231.28517462030678
aF192.07867542545418
aF0.0
aF0.0
aF38.28337353087556
aF345.2773728228343
aF786.9540506273784
aF3032.1878401492727
aF2609.2628832354876
aF1800.0765990042125
aF17140.88503719612
aF7002.693343593693
aF0.0
aF929.944203347799
aF579.844601646758
aF887.1683200258095
aF235.839786171927
aF386.65274716776844
asS'k__Bacteria.p__Proteobacteria.c__Gammaproteobacteria.o__Cellvibrionales.f__Spongiibacteraceae'
p203
(lp204
F311.40521603736846
aF526.7423014586711
aF2045.9370777842132
aF4425.459863003153
aF237.82155456022838
aF0.0
aF575.9041695461876
aF1882.0095252726965
aF38.5044857725925
aF460.193281178094
aF240.4038785159066
aF230.07017140227774
aF690.7932609279654
aF626.4682850430697
aF77.76956876774115
aF383.03903167732796
aF477.87822070009173
aF153.18627450980392
aF2603.66810889459
aF2603.9672206479268
aF1569.6183147658944
aF1837.6722817764178
aF2988.963825873696
aF4019.754220741931
aF6623.023620841471
aF8014.725620278403
aF9331.739482512627
aF7165.300022990265
aF10972.147625258947
aF308.86838346009864
aF0.0
aF229.95554192856048
aF0.0
aF727.3840970866354
aF1301.6347000497685
aF0.0
aF38.53267570900124
aF0.0
aF0.0
aF777.0309646839427
aF577.1450557906887
aF1570.760861236685
aF3106.900387403629
aF1111.664813891976
aF269.5936838051221
aF574.8007357449418
aF575.484366008056
aF159.3625498007968
aF0.0
aF771.1751852962599
aF0.0
aF0.0
aF424.022820137229
aF0.0
aF0.0
aF0.0
aF3215.8033765935465
aF0.0
aF393.4770253136892
aF4004.042917120194
aF575.5726948313575
aF1685.1780926847948
aF613.543983434313
aF230.8580223162756
aF153.6747473971339
aF0.0
aF309.2504542116043
aF0.0
aF0.0
aF193.32637358388422
asS'k__Bacteria.p__Bacteroidota.c__Bacteroidia.o__Chitinophagales.f__Chitinophagaceae'
p205
(lp206
F0.0
aF0.0
aF0.0
aF0.0
aF1030.5600697609896
aF932.9446064139947
aF4069.722798126393
aF4224.919342448911
aF885.6031727696276
aF2109.2192053995977
aF520.8750701177975
aF2185.6666283216387
aF3300.4566911002794
aF1057.1652310101804
aF1399.8522378193404
aF153.2156126709312
aF0.0
aF919.1176470588235
aF7389.822720833175
aF3905.9508309718904
aF7197.274223804589
aF8116.38591117918
aF5096.566523605147
aF4517.438076643312
aF6163.623138470964
aF10622.38754457951
aF10025.835807658194
aF7203.617135412673
aF10703.598557507852
aF9150.225860005421
aF0.0
aF114.97777096428024
aF0.0
aF114.85012059262664
aF38.283373530875544
aF1812.7121258870702
aF0.0
aF1846.0550605987632
aF230.93799314883938
aF2292.241345817631
aF1346.6717968449402
aF3907.746532832729
aF12082.390395458557
aF2568.3290527849103
aF8164.837280955128
aF3487.1244635193134
aF2877.4218300402804
aF2629.4820717131474
aF0.0
aF0.0
aF0.0
aF386.1152940267961
aF269.8327037236912
aF76.83147017018167
aF155.20720161415483
aF0.0
aF0.0
aF0.0
aF480.9163642722867
aF5209.143212564136
aF3184.8355780668453
aF2604.3661432401377
aF4486.540378863415
aF2462.485571373606
aF729.9550501363859
aF0.0
aF0.0
aF40.32583272844589
aF0.0
aF154.6610988671074
asS'k__Bacteria.p__Bacteroidota.c__Bacteroidia.o__Bacteroidales.f__Bacteroidaceae'
p207
(lp208
F21097.703386531706
aF8184.764991896276
aF30496.043234896766
aF384.8225967828829
aF2021.4832137619412
aF0.0
aF191.9680565153959
aF0.0
aF115.51345731777751
aF0.0
aF0.0
aF0.0
aF153.50961353954784
aF665.6225528582617
aF0.0
aF0.0
aF0.0
aF0.0
aF0.0
aF0.0
aF0.0
aF0.0
aF76.64009809932553
aF0.0
aF191.41686765437774
aF0.0
aF1079.7053946708822
aF0.0
aF76.7283050717409
aF53048.14485927194
aF2220.860775003829
aF0.0
aF0.0
aF0.0
aF114.85012059262662
aF3201.1724776303577
aF7937.7311960542565
aF5578.296813548438
aF885.2623070705512
aF2059.132056412448
aF0.0
aF153.24496207187173
aF0.0
aF0.0
aF192.5669170036587
aF0.0
aF0.0
aF105697.21115537848
aF345.0126504638497
aF0.0
aF384.9262866161129
aF0.0
aF22319.019350859602
aF0.0
aF1280.4594133167773
aF191.76926322249062
aF2335.2857853834093
aF76.72830507174095
aF393.4770253136892
aF0.0
aF0.0
aF459.59402527767134
aF0.0
aF0.0
aF115.25606054785041
aF116.24302541847487
aF347.90676098805477
aF67626.42148560373
aF0.0
aF38.66527471677685
asS'k__Bacteria.p__Proteobacteria.c__Gammaproteobacteria.o__Burkholderiales.f__Methylophilaceae'
p209
(lp210
F0.0
aF121.55591572123183
aF0.0
aF76.96451935657659
aF198.18462880019032
aF0.0
aF22306.688167089003
aF10485.481640805021
aF1732.7018597666627
aF8705.322902285612
aF2043.432967385206
aF6863.7601135012865
aF35230.45630732623
aF29561.472200469852
aF34140.84068903836
aF114.9117095031984
aF0.0
aF18114.276960784315
aF4173.526821610446
aF1531.745423910545
aF2526.702653037781
aF1493.1087289433397
aF2414.163090128754
aF1416.4848206423949
aF4632.288197235942
aF5522.107604402345
aF7982.107739174023
aF6130.737987585253
aF6713.726693777328
aF579.1282189876849
aF0.0
aF498.2370075118811
aF114.85012059262662
aF0.0
aF0.0
aF0.0
aF0.0
aF40.13163175214703
aF0.0
aF0.0
aF538.6687187379761
aF2605.1643552218193
aF767.1358981243529
aF766.665388891018
aF577.700751010976
aF996.3212752912323
aF613.8499904085932
aF0.0
aF76.66947788085548
aF0.0
aF0.0
aF1003.8997644696699
aF0.0
aF0.0
aF0.0
aF38.353852644498126
aF0.0
aF0.0
aF0.0
aF1982.5843570206785
aF3491.807681976902
aF4212.945231711987
aF2914.3339213129866
aF1539.0534821085039
aF1997.7717161627406
aF0.0
aF0.0
aF362.932494556013
aF0.0
aF115.99582415033053
asS'k__Bacteria.p__Proteobacteria.c__Gammaproteobacteria.o__Burkholderiales.f__Rhodocyclaceae'
p211
(lp212
F4359.673024523158
aF16936.790923824967
aF7952.1327928971305
aF923.574232278919
aF3091.680209282969
aF7308.066083576292
aF806.2658373646627
aF1843.6011676140702
aF1578.6839166762925
aF2224.267525694121
aF1041.7501402355952
aF1457.1110855477589
aF1880.4927658594613
aF3680.5011746280347
aF1983.1240035773992
aF0.0
aF79.64637011668196
aF344.66911764705884
aF4824.443848834093
aF6012.10078884889
aF5857.356150223947
aF3062.78713629403
aF3295.5242182709976
aF7388.691091458978
aF574.2506029631332
aF843.6553284503582
aF462.7308834303781
aF804.6593608705646
aF498.7339829663158
aF270.2598355275863
aF536.0698422423034
aF498.2370075118811
aF0.0
aF1071.9344588645151
aF76.56674706175109
aF6286.639925948775
aF770.6535141800247
aF4334.21622923188
aF1424.117624417843
aF4001.7094681223048
aF1000.3847633705273
aF3754.5015707608577
aF2876.7596179663233
aF3488.3275194541316
aF1771.6156364336598
aF4253.525444512569
aF6637.253021292913
aF10199.203187250996
aF383.3473894042774
aF20093.397883552552
aF0.0
aF0.0
aF77.09505820676893
aF537.8202911912716
aF737.2342076672353
aF345.1846738004831
aF38.28337353087556
aF1496.2019488989483
aF2142.263804485641
aF6491.991914165751
aF10360.308506964437
aF13558.023745691306
aF5176.777360227016
aF2308.580223162756
aF10373.045449306537
aF658.7104773713577
aF1894.1590320460762
aF5887.5715783530995
aF0.0
aF811.9707690523138
asS'k__Bacteria.p__Proteobacteria.c__Gammaproteobacteria'
p213
(lp214
F248773.84196185274
aF345583.4683954619
aF323026.44277166575
aF530170.0915877783
aF290300.8442665185
aF350942.6627793976
aF345811.25700683444
aF242587.18697188466
aF439297.678179508
aF291685.8413867153
aF244410.60982450488
aF262893.51585566986
aF546110.4501669419
aF529953.0148786216
aF568340.0085546527
aF641820.2014785308
aF226952.33164748512
aF395335.47794117645
aF267909.79055787437
aF303745.1175614612
aF175337.85077140958
aF273774.88514548284
aF228272.53218884094
aF229011.1404616973
aF298954.86390260723
aF301184.9522567781
aF336289.6695330276
aF304122.92129665124
aF305723.9315583524
aF333153.1601096488
aF244945.62720171528
aF66380.4997700445
aF189923.81608667353
aF438880.5941579573
aF189579.26572489555
aF77252.39123727236
aF52866.83107274967
aF196203.54763624686
aF207844.19383395536
aF81665.95438828236
aF74220.8541746826
aF116197.9924909967
aF94702.92662345135
aF96791.50534749095
aF317234.7390718277
aF86258.43041079093
aF126184.53865336634
aF168844.62151394412
aF183393.39109100614
aF221198.74898247732
aF628122.7145001729
aF662033.2831383449
aF261043.86708811962
aF223387.49951980307
aF22427.440633245365
aF32409.005484600904
aF25917.843880402746
aF31803.882452236598
aF93341.49433830296
aF208287.98009640755
aF144545.4894286481
aF180735.35044044408
aF310261.52312293963
aF657983.8399384385
aF169925.85193438077
aF115158.09051456905
aF256098.03239398496
aF123276.0706508591
aF325851.9712275459
aF386575.4166183351
asS'k__Bacteria.p__Proteobacteria.c__Gammaproteobacteria.o__Alteromonadales'
p215
(lp216
F1790.5799922148685
aF9116.693679092388
aF7411.6965836711115
aF38135.91934118369
aF2972.769432002855
aF3809.5238095238115
aF25762.113184366124
aF38600.3994469196
aF362365.71560586814
aF117732.78110139573
aF46478.083179741945
aF46320.79450899192
aF5411.213877269062
aF7361.00234925607
aF7621.417739238631
aF113188.03386065042
aF25606.30799251325
aF12178.308823529413
aF112187.46410384041
aF212682.8521099792
aF115271.23770146609
aF203675.34456355294
aF131437.76824034326
aF150109.1076145629
aF88472.8762298534
aF104383.17291099433
aF115451.35541587934
aF99777.76074794999
aF97713.49650886205
aF13435.774680514289
aF842.3954663807625
aF1571.362869845163
aF612.5339764940087
aF4708.854944297692
aF30205.5817158608
aF1735.5754396791099
aF4045.93094944513
aF3009.8723814110276
aF32485.27770293674
aF1787.171218773068
aF1308.1954597922277
aF32334.686997164925
aF24394.921560354414
aF30934.94844175257
aF114654.34238397841
aF33491.72286940527
aF40245.539996163374
aF6215.139442231076
aF38.33473894042774
aF8011.653313911145
aF47268.947996458664
aF72010.50233599744
aF6553.07994757536
aF15712.03564980215
aF970.0450100884676
aF191.76926322249062
aF1263.3513265188933
aF920.7396608608913
aF1617.6277707340553
aF47582.024568496265
aF51878.28556079969
aF63002.68096514744
aF98742.23483395974
aF84801.84686417857
aF83406.9691497944
aF1511.1593304401733
aF1894.1590320460764
aF6290.829905637558
aF16941.157973350088
aF9047.674283725779
asS'k__Bacteria.p__Proteobacteria.c__Gammaproteobacteria.o__Xanthomonadales.f__Xanthomonadaceae'
p217
(lp218
F48189.957181782775
aF79173.41977309568
aF41690.79328315001
aF12506.734395443695
aF83633.9133536803
aF69310.00971817301
aF6258.158642401906
aF1229.0674450760466
aF9048.55415655924
aF1227.1820831415841
aF29329.273178940603
aF6710.379999233101
aF230.26442030932176
aF313.23414252153486
aF77.76956876774115
aF0.0
aF876.1100712835015
aF76.59313725490196
aF344.60313205957806
aF114.88090679329089
aF995.3677118027624
aF574.2725880551305
aF689.7608828939296
aF306.26698824700424
aF0.0
aF0.0
aF0.0
aF0.0
aF191.82076267935224
aF2895.6410949384244
aF2450.604993107673
aF11612.754867392305
aF382.8337353087554
aF6891.007235557598
aF1186.7845794571417
aF0.0
aF1001.8495684340322
aF14527.650694277225
aF1847.503945190715
aF2913.8661175647853
aF2500.961908426318
aF0.0
aF0.0
aF0.0
aF0.0
aF0.0
aF115.09687320161122
aF0.0
aF498.3516062255606
aF3427.4452679833776
aF731.3599445706145
aF424.7268234294757
aF1734.6388096523008
aF1997.6182244247236
aF2832.531429458325
aF728.7232002454643
aF1148.5012059262665
aF6214.992710811017
aF11410.833734096983
aF738.6098584979
aF460.45815586508604
aF421.2945231711987
aF460.15798757573475
aF192.38168526356299
aF307.3494947942678
aF116.24302541847487
aF0.0
aF362.932494556013
aF275.1464172005815
aF1005.297142636198
asS'k__Bacteria.p__Patescibacteria'
p219
(lp220
F622.8104320747369
aF0.0
aF1466.8982821849077
aF76.96451935657659
aF158.54770304015224
aF1010.6899902818277
aF921.4466712739003
aF729.7587955139028
aF462.05382927111003
aF2339.3158459886445
aF681.1443224617353
aF2684.15199969324
aF1535.0961353954783
aF0.0
aF699.9261189096703
aF38.3039031677328
aF955.7564414001833
aF497.8553921568628
aF306.31389516406944
aF268.0554491843454
aF153.1334941235019
aF267.9938744257276
aF383.2004904966276
aF574.2506029631329
aF9379.426515064506
aF12616.481957280355
aF9061.813133844904
aF16131.5043298337
aF13312.360929947044
aF41002.2779043281
aF344.61632715576656
aF0.0
aF421.11710883963093
aF306.26698824700435
aF114.85012059262662
aF539.956803455723
aF231.1960542540074
aF923.0275302993816
aF76.97933104961314
aF271.9608376393799
aF1769.9115044247787
aF1264.2709370929417
aF1419.201411530053
aF114.9998083336527
aF3119.5840554592705
aF8545.3709380748
aF2570.496834835984
aF1115.5378486055774
aF460.0168672851329
aF0.0
aF731.3599445706145
aF2625.5839993822137
aF3160.8973864775257
aF192.07867542545418
aF388.01800403538704
aF76.70770528899625
aF38.28337353087556
aF76.72830507174095
aF655.7950421894819
aF4548.28176022391
aF3722.036759909445
aF4174.645729605514
aF7400.8743001764005
aF3770.681031165834
aF1114.1419186292208
aF0.0
aF0.0
aF8266.795709331407
aF393.066310286545
aF270.6569230174379
asS'k__Bacteria.p__Proteobacteria.c__Gammaproteobacteria.o__Alteromonadales.f__Shewanellaceae'
p221
(lp222
F1751.6543402101975
aF3038.897893030796
aF5790.387955993056
aF37597.16770568766
aF1387.2924016013324
aF738.5811467444124
aF10750.211164862169
aF16016.285143647232
aF342227.86954680225
aF94224.57432121475
aF21556.214440259624
aF27991.87085394379
aF997.8124880070609
aF509.00548159749417
aF427.73262822257624
aF111311.14260543151
aF18159.372386603485
aF10531.55637254902
aF59271.738714247425
aF155587.04143371363
aF53864.70655794179
aF140543.64471669227
aF66178.72470876758
aF89889.36105049575
aF16729.834232992616
aF18675.461134332927
aF24948.906798287888
aF28546.24875469383
aF22788.306606307047
aF9690.745531060595
aF650.9419512942256
aF114.97777096428024
aF612.5339764940087
aF4440.871329581563
aF30129.01496879905
aF694.2301758716438
aF4045.93094944513
aF0.0
aF32177.36037873829
aF271.9608376393799
aF577.1450557906887
aF10535.59114244118
aF5178.167312339381
aF9583.317361137724
aF2772.9636048526854
aF8315.450643776823
aF10397.084212545546
aF2151.394422310757
aF0.0
aF4541.364980077976
aF46807.03645251933
aF69925.47974825275
aF2698.3270372369125
aF15519.956974376697
aF349.2162036318484
aF191.76926322249062
aF1225.0679529880179
aF575.4622880380571
aF786.9540506273783
aF15782.926450007753
aF33575.073865162514
aF41861.355802374565
aF60894.24035585557
aF69295.88303193537
aF53017.787852011184
aF1239.925604463732
aF425.2193745409558
aF1774.336640051619
aF16233.638614834306
aF7849.0507675057
asS'k__Bacteria.p__Verrucomicrobiota.c__Verrucomicrobiae'
p223
(lp224
F1128.8439081354607
aF1053.4846029173425
aF540.4362092260185
aF115.44677903486487
aF2140.3939910420554
aF2099.1253644314884
aF38.393611303079176
aF0.0
aF38.5044857725925
aF115.0483202945235
aF601.0096962897665
aF4754.78354231374
aF10668.918140998572
aF1722.787783868442
aF2488.6262005677168
aF38.3039031677328
aF597.3477758751146
aF344.66911764705884
aF459.4708427461041
aF191.46817798881816
aF191.41686765437737
aF191.42419601837688
aF383.2004904966276
aF421.1171088396308
aF957.0843382718887
aF1303.8309621505534
aF2236.532603246828
aF1187.8304850946429
aF3989.8718637305274
aF0.0
aF3522.74467759228
aF728.1925494404416
aF497.68385590138206
aF880.5175912101375
aF4019.754220741932
aF5708.114779389072
aF154.13070283600496
aF722.3693715386465
aF0.0
aF2447.647538754419
aF2577.9145825317432
aF229.86744310780756
aF191.78397453108823
aF38.3332694445509
aF2618.9100712497584
aF728.0809319435929
aF1266.0656052177233
aF0.0
aF3680.134938281063
aF4112.934321580054
aF0.0
aF695.007529248233
aF65183.87171382313
aF0.0
aF0.0
aF115.06155793349437
aF0.0
aF0.0
aF3410.134219385307
aF1438.3455139169628
aF2494.1483442692156
aF2029.873611643048
aF958.6624741161141
aF692.5740669488268
aF115.25606054785041
aF697.4581525108493
aF2010.1279523754279
aF0.0
aF707.519358515781
aF386.6527471677684
asS'k__Bacteria.p__Proteobacteria.c__Gammaproteobacteria.o__Enterobacterales'
p225
(lp226
F0.0
aF2147.487844408429
aF8531.171588496434
aF384.82259678288295
aF1347.6554758412942
aF5519.922254616135
aF76.78722260615835
aF0.0
aF423.54934349851766
aF115.0483202945235
aF3966.6639955124588
aF0.0
aF1880.492765859461
aF1957.713390759593
aF1283.1978846677289
aF306.4312253418624
aF915.9332563418425
aF574.4485294117648
aF0.0
aF0.0
aF76.56674706175095
aF0.0
aF0.0
aF114.8501205926266
aF535.9672294322577
aF38.347969475016285
aF347.04816257278367
aF229.902674534447
aF0.0
aF11389.521640091138
aF957.2675754326847
aF1073.1258623332824
aF38.283373530875544
aF459.40048237050655
aF38.283373530875544
aF1542.7337241592088
aF462.3921085080148
aF2688.819327393851
aF577.3449828720985
aF1592.9134776020824
aF1192.76644863409
aF38.31124051796793
aF1956.1965402171
aF3794.993675010539
aF0.0
aF0.0
aF1457.8937272204087
aF10517.928286852588
aF191.6736947021387
aF11910.372306242236
aF538.896801262558
aF695.007529248233
aF3430.730090201217
aF576.2360262763625
aF1202.8558125096997
aF613.66164231197
aF267.98361471612884
aF3951.507711194659
aF1399.0294233375614
aF0.0
aF76.74302597751434
aF0.0
aF268.4254927525119
aF38.476337052712594
aF0.0
aF697.4581525108492
aF695.8135219761095
aF3185.7407855472256
aF746.8259895444355
aF1546.6109886710738
asS'k__Bacteria.p__Proteobacteria.c__Alphaproteobacteria.o__Sphingomonadales.f__Sphingomonadaceae'
p227
(lp228
F22966.13468275592
aF80307.9416531605
aF36633.854468249396
aF11082.890787347029
aF50854.17575012884
aF53799.80563654036
aF3992.9355755202346
aF1574.7426640036847
aF6160.717723614801
aF1188.8326430434095
aF11859.924673451393
aF5214.923885118295
aF8059.254710826262
aF8692.247454972594
aF6415.989423338645
aF1608.7639330447773
aF2907.092509258892
aF1646.7524509803923
aF268.0246582685607
aF459.52362717316356
aF306.2669882470038
aF153.1393568147015
aF536.4806866952787
aF76.56674706175106
aF1646.1850618276485
aF2607.661924301108
aF4357.382485636062
aF1800.9042838531682
aF4296.785084017491
aF24477.819389212822
aF2910.0934293153614
aF6898.666257856814
aF191.4168676543777
aF3445.503617778799
aF803.9508441483864
aF16391.54581919159
aF1888.1011097410606
aF31904.64724295689
aF7543.974442862087
aF18415.63386300944
aF12043.093497499038
aF191.55620258983964
aF268.4975643435235
aF268.3328861118563
aF1386.4818024263425
aF344.88044144696505
aF959.1406100134268
aF51832.66932270917
aF843.3642566894102
aF57452.55130457135
aF3579.8144655298497
aF4671.995057724233
aF8249.171228124274
aF4072.067919019629
aF4578.612447617566
aF882.1386108234568
aF1339.9180735806444
aF3567.8661858359537
aF19280.374240370766
aF894.1066708132471
aF613.9442078201147
aF1914.9751053236305
aF2991.0269192422757
aF461.7160446325512
aF307.3494947942678
aF4184.748915065096
aF6455.603231667239
aF27300.588757157868
aF2043.9448134900338
aF4098.519119978345
asS'k__Bacteria.p__Proteobacteria.c__Alphaproteobacteria.o__Rhizobiales.f__Rhizobiaceae'
p229
(lp230
F5099.260412611908
aF11993.517017828208
aF926.4620729588889
aF654.198414530901
aF2180.0309168020935
aF4042.759961127311
aF10750.211164862167
aF19165.770471654607
aF15209.271880174038
aF22089.277496548508
aF29930.282875230372
aF20667.970397637946
aF1611.8509421652523
aF6851.996867658577
aF1633.160944122564
aF383.0390316773279
aF796.4637011668194
aF1416.9730392156862
aF17115.288892292378
aF17653.366010569032
aF13973.431338769547
aF14012.251148545183
aF12990.496627835675
aF19639.370621339145
aF29478.19761877417
aF16297.887026881917
aF15848.532757490451
aF9387.692543489919
aF9169.032456073035
aF5984.324929539411
aF2756.930617246133
aF2606.1628085236857
aF2411.852532445159
aF6967.57398261935
aF1378.2014471115194
aF4859.611231101509
aF4200.061652281134
aF6140.139658078495
aF1924.4832762403282
aF6332.802362174132
aF1385.1481338976532
aF16665.389625316042
aF9013.846802961143
aF17518.304136159757
aF10668.20720200269
aF14523.298589822194
aF15921.73412622288
aF6055.776892430278
aF46423.368856858
aF26948.288419519304
aF24250.35605681512
aF9343.990115448463
aF4201.680672268907
aF3726.326303253811
aF1319.261213720316
aF2953.246653626356
aF2909.5363883465425
aF1150.9245760761141
aF7476.063480960095
aF9601.928160472697
aF21526.41878669278
aF17158.176943699727
aF29833.576194493467
aF6733.358984224706
aF18248.876253409653
aF38670.17978921264
aF48011.13301635157
aF8145.81821114607
aF4677.489092409886
aF2861.230329041486
asS'k__Bacteria.p__Planctomycetota.c__Planctomycetes'
p231
(lp232
F2919.4239003503294
aF0.0
aF1930.129318664352
aF38.482259678288294
aF39.63692576003806
aF0.0
aF191.9680565153959
aF883.3922261484088
aF308.03588618074
aF728.6393618653155
aF1161.9520794935484
aF1227.0409141454813
aF422.15143723375655
aF0.0
aF0.0
aF727.7741601869232
aF477.87822070009173
aF765.9313725490197
aF1033.8093961787345
aF153.17454239105453
aF229.70024118525285
aF229.70903522205222
aF1916.0024524831383
aF114.8501205926266
aF76.5667470617511
aF460.1756337001953
aF2969.189835344927
aF919.6106981377878
aF8325.021100283886
aF0.0
aF6509.419512942257
aF1456.3850988808833
aF3254.086750124421
aF7158.990850273727
aF3598.6371119023006
aF3548.28756556618
aF0.0
aF80.26326350429406
aF1231.6692967938102
aF1087.8433505575197
aF269.33435936898803
aF0.0
aF0.0
aF153.3330777782036
aF808.7810514153664
aF1187.9215205395465
aF1611.3562248225574
aF1673.3067729083666
aF38.33473894042774
aF1199.605843794182
aF0.0
aF1003.8997644696699
aF269.8327037236912
aF3034.843071722177
aF194.00900201769352
aF3720.3237065163185
aF191.41686765437777
aF0.0
aF918.1130590652747
aF116.6226092365105
aF6024.327539234877
aF1340.4825737265414
aF115.03949689393369
aF1616.006156213929
aF1498.3287871220555
aF2208.6174829510223
aF309.2504542116043
aF0.0
aF1611.5718721748347
aF502.648571318099
asS'k__Bacteria.p__Planctomycetota'
p233
(lp234
F2919.4239003503294
aF0.0
aF3281.2198417293985
aF38.482259678288294
aF39.63692576003806
aF116.61807580174934
aF2572.3719573063054
aF1382.7008757105527
aF1155.134573177775
aF1457.278723730631
aF2604.375350588988
aF2300.701714022777
aF1650.2283455501395
aF0.0
aF155.5391375354823
aF727.7741601869232
aF477.87822070009173
aF880.8210784313726
aF7428.1119577286845
aF4556.942636133872
aF9455.993262126241
aF4364.471669218993
aF11342.734518700176
aF7580.107959113356
aF344.5503617778799
aF3604.7091306515304
aF3778.968881348089
aF1800.9042838531684
aF9782.858896646963
aF2663.989807343351
aF6509.419512942257
aF1762.9924881189636
aF3254.086750124421
aF7158.990850273727
aF3598.6371119023006
aF4473.927800061705
aF0.0
aF80.26326350429406
aF1231.6692967938102
aF1087.8433505575197
aF269.33435936898803
aF689.6023293234226
aF2147.9805147481884
aF1648.3305861156887
aF2541.8833044482944
aF2145.922746781116
aF2647.2280836370583
aF1673.3067729083666
aF38.33473894042774
aF1199.605843794182
aF0.0
aF1003.8997644696699
aF2621.2319790301435
aF3034.843071722177
aF194.00900201769352
aF3720.3237065163185
aF191.41686765437777
aF0.0
aF1267.870414899665
aF4664.904369460421
aF8134.760753616519
aF3063.9601685178086
aF1035.355472045403
aF2231.6275490573307
aF2189.865150409158
aF2208.6174829510223
aF309.2504542116043
aF3064.7632873618877
aF1611.5718721748347
aF502.648571318099
asS'k__Bacteria.p__Proteobacteria.c__Alphaproteobacteria.o__Caulobacterales'
p235
(lp236
F700.6617360840789
aF8670.988654781204
aF887.8594865856019
aF885.0919726006307
aF3725.871021443578
aF3459.669582118564
aF1497.3508408200878
aF2880.6268243969844
aF1540.1794309037002
aF2300.96640589047
aF1762.9617757833148
aF2684.1519996932398
aF690.7932609279654
aF1722.7877838684417
aF1049.8891783645054
aF76.6078063354656
aF0.0
aF191.48284313725492
aF1072.0986330742428
aF1378.5708815194907
aF574.2506029631321
aF689.1271056661568
aF766.4009809932552
aF574.2506029631329
aF2756.4028942230398
aF4793.496184377035
aF5899.818763737322
aF3027.051881370219
aF2263.484999616357
aF115.82564379753698
aF0.0
aF229.95554192856048
aF0.0
aF229.70024118525328
aF76.56674706175109
aF617.0934896636835
aF539.4574599260172
aF1685.5285335901751
aF384.89665524806566
aF932.4371576207311
aF6733.358984224703
aF1455.8271396827813
aF498.6383337808294
aF689.9988500019163
aF3543.2312728673196
aF613.1207847946046
aF920.7749856128897
aF2908.3665338645415
aF191.6736947021387
aF8354.397840709482
aF769.8525732322258
aF115.83458820803882
aF1272.0684604116873
aF0.0
aF77.60360080707741
aF115.06155793349437
aF38.28337353087556
aF268.5490677510933
aF437.1966947929879
aF6880.73394495412
aF2609.2628832354876
aF5017.234775947913
aF2569.215430631186
aF1923.8168526356299
aF1267.8166660263544
aF271.23372597644135
aF386.5630677645053
aF1008.1458182111473
aF432.37294131519945
aF0.0
asS'k__Bacteria.p__Bacteroidota.c__Bacteroidia.o__Chitinophagales'
p237
(lp238
F0.0
aF0.0
aF0.0
aF0.0
aF1030.5600697609896
aF932.9446064139947
aF278200.1075021118
aF193232.44738054974
aF30726.579646528815
aF97292.52952906874
aF72521.83668563182
aF108209.67061620457
aF203208.35092297647
aF206342.9913860611
aF252128.94194501676
aF191.51951583866398
aF79.64637011668196
aF102060.35539215687
aF42730.788375387674
aF39519.03193689206
aF30856.39906588563
aF59571.20980091886
aF61465.358675659045
aF46361.16534589025
aF114007.88637494738
aF156421.36748859135
aF140477.38402807224
aF133075.3314430224
aF154338.98565180675
aF10308.482297980792
aF0.0
aF114.97777096428024
aF0.0
aF114.85012059262664
aF38.283373530875544
aF1812.7121258870702
aF0.0
aF1846.0550605987632
aF230.93799314883938
aF2292.241345817631
aF1346.6717968449402
aF41606.007202513174
aF48329.56158183421
aF34806.60865565222
aF73637.58906219907
aF55449.11097486202
aF49184.730481488514
aF6414.342629482071
aF0.0
aF0.0
aF0.0
aF463.33835283215524
aF1387.7110477218407
aF76.83147017018167
aF388.01800403538704
aF0.0
aF0.0
aF191.82076267935236
aF1355.3097538582626
aF109664.1268853987
aF101147.30823836388
aF98353.12140942166
aF82790.09126466759
aF50750.28857252792
aF62622.45956433205
aF0.0
aF0.0
aF1895.314138236957
aF275.1464172005815
aF154.6610988671074
asS'k__Bacteria.p__Chloroflexi'
p239
(lp240
F934.2156481121053
aF7698.541329011349
aF21694.653541787316
aF0.0
aF12247.810059851761
aF3187.560738581149
aF1574.1380634262462
aF1267.4758027346732
aF423.54934349851754
aF575.2416014726175
aF1041.7501402355952
aF6441.964799263778
aF15274.206547185004
aF861.3938919342208
aF0.0
aF0.0
aF318.58548046672786
aF0.0
aF229.73542137305205
aF76.58727119552726
aF38.28337353087547
aF76.56967840735075
aF0.0
aF153.13349412350212
aF1339.9180735806442
aF728.6114200253094
aF771.2181390506303
aF536.4395739137096
aF345.2773728228341
aF10540.133585575864
aF0.0
aF728.1925494404416
aF0.0
aF114.85012059262664
aF76.56674706175109
aF6518.049984572657
aF0.0
aF6340.79781683923
aF4233.863207728723
aF2952.717665798982
aF2424.0092343208926
aF153.24496207187173
aF191.78397453108823
aF153.3330777782036
aF269.5936838051221
aF229.9202942979767
aF76.73124880107414
aF2031.8725099601593
aF3718.469677221492
aF4112.934321580054
aF461.9115439393355
aF772.2305880535923
aF0.0
aF0.0
aF271.6126028247709
aF0.0
aF76.56674706175112
aF0.0
aF16132.558037861247
aF1321.7229046804523
aF844.1732857526576
aF1187.284565300651
aF881.969476186825
aF461.7160446325512
aF653.117676437819
aF0.0
aF1005.0639761877137
aF19598.354706024704
aF393.066310286545
aF193.32637358388422
asS'k__Bacteria.p__Actinobacteriota.c__Actinobacteria.o__Micrococcales'
p241
(lp242
F700.661736084079
aF4011.34521880065
aF2856.5913916232407
aF769.645193565766
aF1308.018550081256
aF1166.1807580174934
aF115.18083390923753
aF307.26686126901166
aF154.01794309037
aF345.14496088357055
aF1081.8174533215797
aF421.7953142375092
aF0.0
aF1566.1707126076744
aF349.9630594548351
aF383.03903167732796
aF557.5245908167736
aF0.0
aF0.0
aF0.0
aF0.0
aF38.284839203675375
aF0.0
aF0.0
aF344.5503617778799
aF0.0
aF655.5354181930356
aF344.85401180167054
aF844.0113557891499
aF12933.86355739163
aF114.87210905192217
aF191.6296182738004
aF0.0
aF0.0
aF0.0
aF617.0934896636835
aF38.53267570900124
aF1003.2907938036758
aF0.0
aF17288.938964217723
aF334513.2743362832
aF153.24496207187173
aF0.0
aF38.3332694445509
aF500.67398420951247
aF6246.167995095034
aF0.0
aF358.56573705179284
aF728.360039868127
aF1885.0948973908576
aF5388.968012625581
aF2162.245646550058
aF3546.3726775113705
aF883.5619069570893
aF0.0
aF191.76926322249062
aF0.0
aF0.0
aF437.196694792988
aF233.245218473021
aF268.6005909213002
aF459.59402527767134
aF0.0
aF115.4290111581378
aF76.83737369856695
aF154.9907005579665
aF811.7824423054611
aF1330.7524800387146
aF1218.5055618882895
aF2049.259559989173
asS'k__Bacteria.p__Proteobacteria.c__Gammaproteobacteria.o__Legionellales'
p243
(lp244
F39937.7189567925
aF1256.0777957860623
aF3744.4508782088424
aF18509.966905256668
aF2695.3109516825884
aF1049.5626822157442
aF2917.914459034018
aF2803.8101090797313
aF0.0
aF728.6393618653157
aF0.0
aF843.5906284750183
aF14967.187320105915
aF13155.833985904464
aF5016.137185519304
aF30528.210824683043
aF61287.88180478677
aF11757.046568627451
aF497.76007964161283
aF0.0
aF153.1334941235019
aF382.84839203675375
aF574.8007357449416
aF0.0
aF61521.381264117015
aF22356.86620393449
aF41375.85316006631
aF10613.840141006965
aF8670.298473106719
aF55171.614995560114
aF231122.6834124674
aF22075.732025141806
aF185444.66138356112
aF396271.1994180927
aF81926.41935607367
aF38606.9114470842
aF17493.834771886555
aF83233.00425395294
aF43685.77037065545
aF18765.29779711721
aF22508.65717583686
aF1072.714734503102
aF1073.9902573740942
aF191.6663472227545
aF5006.739842095126
aF2184.2427958307785
aF1381.1624784193348
aF63944.22310756972
aF167676.14812543095
aF84400.83972409066
aF2732.976634974402
aF3011.69929340901
aF84303.44614910182
aF91583.11244285655
aF3608.567437529099
aF24508.1118398343
aF8996.592779755754
aF5294.253049950125
aF13902.854894417014
aF3148.8104493857836
aF1956.9471624266157
aF1761.77709689774
aF3029.373418206921
aF1731.435167372067
aF230.51212109570082
aF100317.7309361438
aF208512.11875217422
aF21413.017178804766
aF147439.17298848298
aF281560.530487569
asS'k__Bacteria.p__Desulfobacterota.c__Desulfovibrionia.o__Desulfovibrionales'
p245
(lp246
F6773.063448812764
aF18638.573743922214
aF3512.8353599691204
aF1693.219425844685
aF7927.385152007612
aF9601.554907677362
aF0.0
aF76.81671531725291
aF0.0
aF0.0
aF0.0
aF0.0
aF115.13221015466088
aF0.0
aF0.0
aF0.0
aF0.0
aF0.0
aF38.28923689550868
aF191.46817798881816
aF0.0
aF459.41807044410444
aF1264.561618638871
aF1799.31855595115
aF0.0
aF0.0
aF0.0
aF0.0
aF0.0
aF3436.1607659935976
aF0.0
aF344.9333128928407
aF0.0
aF76.56674706175109
aF0.0
aF0.0
aF115.5980271270037
aF0.0
aF115.46899657441969
aF0.0
aF0.0
aF56585.70224503863
aF9780.9827010855
aF48031.58661402228
aF1502.0219526285377
aF115381.66768853464
aF24055.246499136738
aF1035.8565737051792
aF115.00421682128322
aF0.0
aF0.0
aF0.0
aF3430.730090201217
aF153.66294034036335
aF0.0
aF0.0
aF38.28337353087556
aF76.72830507174095
aF131.15900843789638
aF272.1194215518578
aF76.74302597751434
aF114.89850631941783
aF76.69299792928912
aF0.0
aF0.0
aF0.0
aF0.0
aF3064.7632873618877
aF0.0
aF0.0
asS'k__Bacteria.p__Actinobacteriota'
p247
(lp248
F11327.364733359274
aF42139.38411669368
aF12430.032812198424
aF2963.133995228199
aF52954.932815410866
aF34713.313896987376
aF3417.031405974047
aF3456.752189276381
aF4042.971006122214
aF3298.0518484430077
aF14945.107781072189
aF14609.45588404462
aF26365.27612541734
aF66953.79796397807
aF4938.367616751562
aF5975.408894166318
aF16247.859503803116
aF804.2279411764707
aF574.3385534326301
aF919.0472543463271
aF574.2506029631321
aF267.9938744257276
aF268.2403433476393
aF650.817350024884
aF3713.4872324949283
aF1917.3984737508142
aF6478.232368025296
aF1954.1727335427995
aF2071.6642369370047
aF72313.81027759564
aF727.5233573288403
aF2414.5331902498856
aF306.26698824700435
aF3522.070364840551
aF344.5503617778799
aF154041.96235729693
aF5895.49938347719
aF27369.77285496427
aF4002.9252145798832
aF30032.246785034382
aF351558.2916506347
aF727.9135698413907
aF536.995128687047
aF881.6651972246707
aF1232.4282688234152
aF7127.529123237278
aF1227.6999808171863
aF22709.163346613543
aF13685.501801732695
aF120988.81795981321
aF11393.81808383694
aF5135.333410556389
aF9405.597101225807
aF2842.764396296722
aF6053.080862952039
aF690.3693476009662
aF1033.6510853336401
aF613.8264405739276
aF28942.421195295796
aF2176.9553724148627
aF2494.1483442692165
aF4595.940252776714
aF1457.1669606564935
aF1308.1954597922283
aF2113.0277767105913
aF28595.784252944813
aF17086.08759519113
aF34922.17114283413
aF3065.9172202350505
aF5838.456482233304
assS'subclass_sl'
p249
(dp250
g44
(I59
I65
tp251
sg50
(I41
I47
tp252
sg48
(I30
I35
tp253
sg52
(I47
I53
tp254
sg38
(I18
I24
tp255
sg40
(I24
I30
tp256
sg42
(I0
I6
tp257
sg34
(I35
I41
tp258
sg46
(I65
I70
tp259
sg36
(I53
I59
tp260
sg30
(I6
I12
tp261
sg32
(I12
I18
tp262
ssS'norm'
p263
F1000000.0
sS'cls'
p264
(dp265
S'class'
p266
(S'MIXF'
p267
S'MIXF'
p268
S'MIXF'
p269
S'MIXF'
p270
S'MIXF'
p271
g15
S'MIXM1'
p272
S'MIXM1'
p273
S'MIXM1'
p274
S'MIXM1'
p275
S'MIXM1'
p276
g3
S'MIXM2'
p277
S'MIXM2'
p278
S'MIXM2'
p279
S'MIXM2'
p280
S'MIXM2'
p281
g5
S'OCTM1'
p282
S'OCTM1'
p283
S'OCTM1'
p284
S'OCTM1'
p285
S'OCTM1'
p286
g11
S'OCTM2'
p287
S'OCTM2'
p288
S'OCTM2'
p289
S'OCTM2'
p290
S'OCTM2'
p291
g13
S'OTCF'
p292
S'OTCF'
p293
S'OTCF'
p294
S'OTCF'
p295
g21
S'SCF'
p296
S'SCF'
p297
S'SCF'
p298
S'SCF'
p299
S'SCF'
p300
g7
S'SCM1'
p301
S'SCM1'
p302
S'SCM1'
p303
S'SCM1'
p304
S'SCM1'
p305
g23
S'SCM2'
p306
S'SCM2'
p307
S'SCM2'
p308
S'SCM2'
p309
S'SCM2'
p310
g25
S'SMXF'
p311
S'SMXF'
p312
S'SMXF'
p313
S'SMXF'
p314
S'SMXF'
p315
g9
S'SMXM1'
p316
S'SMXM1'
p317
S'SMXM1'
p318
S'SMXM1'
p319
S'SMXM1'
p320
g17
S'SMXM2'
p321
S'SMXM2'
p322
S'SMXM2'
p323
S'SMXM2'
p324
g19
tp325
sS'subclass'
p326
(lp327
S'MIXF_subcl'
p328
aS'MIXF_subcl'
p329
aS'MIXF_subcl'
p330
aS'MIXF_subcl'
p331
aS'MIXF_subcl'
p332
ag42
aS'MIXM1_subcl'
p333
aS'MIXM1_subcl'
p334
aS'MIXM1_subcl'
p335
aS'MIXM1_subcl'
p336
aS'MIXM1_subcl'
p337
ag30
aS'MIXM2_subcl'
p338
aS'MIXM2_subcl'
p339
aS'MIXM2_subcl'
p340
aS'MIXM2_subcl'
p341
aS'MIXM2_subcl'
p342
ag32
aS'OCTM1_subcl'
p343
aS'OCTM1_subcl'
p344
aS'OCTM1_subcl'
p345
aS'OCTM1_subcl'
p346
aS'OCTM1_subcl'
p347
ag38
aS'OCTM2_subcl'
p348
aS'OCTM2_subcl'
p349
aS'OCTM2_subcl'
p350
aS'OCTM2_subcl'
p351
aS'OCTM2_subcl'
p352
ag40
aS'OTCF_subcl'
p353
aS'OTCF_subcl'
p354
aS'OTCF_subcl'
p355
aS'OTCF_subcl'
p356
ag48
aS'SCF_subcl'
p357
aS'SCF_subcl'
p358
aS'SCF_subcl'
p359
aS'SCF_subcl'
p360
aS'SCF_subcl'
p361
ag34
aS'SCM1_subcl'
p362
aS'SCM1_subcl'
p363
aS'SCM1_subcl'
p364
aS'SCM1_subcl'
p365
aS'SCM1_subcl'
p366
ag50
aS'SCM2_subcl'
p367
aS'SCM2_subcl'
p368
aS'SCM2_subcl'
p369
aS'SCM2_subcl'
p370
aS'SCM2_subcl'
p371
ag52
aS'SMXF_subcl'
p372
aS'SMXF_subcl'
p373
aS'SMXF_subcl'
p374
aS'SMXF_subcl'
p375
aS'SMXF_subcl'
p376
ag36
aS'SMXM1_subcl'
p377
aS'SMXM1_subcl'
p378
aS'SMXM1_subcl'
p379
aS'SMXM1_subcl'
p380
aS'SMXM1_subcl'
p381
ag44
aS'SMXM2_subcl'
p382
aS'SMXM2_subcl'
p383
aS'SMXM2_subcl'
p384
aS'SMXM2_subcl'
p385
ag46
asS'subject'
p386
(S'MIXF1'
p387
S'MIXF2'
p388
S'MIXF3'
p389
S'MIXF4'
p390
S'MIXF5'
p391
S'MIXF6'
p392
S'MIXM11'
p393
S'MIXM12'
p394
S'MIXM13'
p395
S'MIXM14'
p396
S'MIXM15'
p397
S'MIXM16'
p398
S'MIXM21'
p399
S'MIXM22'
p400
S'MIXM23'
p401
S'MIXM24'
p402
S'MIXM25'
p403
S'MIXM26'
p404
S'OTCM11'
p405
S'OTCM12'
p406
S'OTCM13'
p407
S'OTCM14'
p408
S'OTCM15'
p409
S'OTCM16'
p410
S'OTCM21'
p411
S'OTCM22'
p412
S'OTCM23'
p413
S'OTCM24'
p414
S'OTCM25'
p415
S'OTCM26'
p416
S'OTCF1'
p417
S'OTCF2'
p418
S'OTCF3'
p419
S'OTCF4'
p420
S'OTCF5'
p421
S'SCF1'
p422
S'SCF2'
p423
S'SCF3'
p424
S'SCF4'
p425
S'SCF5'
p426
S'SCF6'
p427
S'SCM11'
p428
S'SCM12'
p429
S'SCM13'
p430
S'SCM14'
p431
S'SCM15'
p432
S'SCM16'
p433
S'SCM21'
p434
S'SCM22'
p435
S'SCM23'
p436
S'SCM24'
p437
S'SCM25'
p438
S'SCM26'
p439
S'SMXF1'
p440
S'SMXF2'
p441
S'SMXF3'
p442
S'SMXF4'
p443
S'SMXF5'
p444
S'SMXF6'
p445
S'SMXM11'
p446
S'SMXM12'
p447
S'SMXM13'
p448
S'SMXM14'
p449
S'SMXM15'
p450
S'SMXM16'
p451
S'SMXM21'
p452
S'SMXM22'
p453
S'SMXM23'
p454
S'SMXM24'
p455
S'SMXM25'
p456
tp457
ss.